{
   ShapeAccessor
   Memcheck:Leak
   ...
   fun:TRI_ShapeAccessor
}

{
   regcomp
   Memcheck:Cond
   ...
   fun:regcomp
}

{
   buildApplicationServer
   Memcheck:Leak
   ...
   fun:_ZN8triagens7avocado13AvocadoServer22buildApplicationServerEv
}

{
   ProgramOptions
   Memcheck:Leak
   ...
   fun:_ZN8triagens6basics25ProgramOptionsDescriptionclERS1_b
}

{
   <insert_a_suppression_name_here>
   Memcheck:Leak
   fun:_Znwm
   fun:_ZNSs4_Rep9_S_createEmmRKSaIcE
   fun:_ZNSs9_M_mutateEmmm
   fun:_ZNSs15_M_replace_safeEmmPKcm
   fun:_ZN8triagens7avocado13AvocadoServerC1EiPPc
   fun:main
}

{
   <insert_a_suppression_name_here>
   Memcheck:Leak
   fun:_Znwm
   fun:_ZNSs4_Rep9_S_createEmmRKSaIcE
   fun:_ZNSs12_S_constructIPKcEEPcT_S3_RKSaIcESt20forward_iterator_tag
   fun:_ZNSsC1EPKcRKSaIcE
   fun:_ZN8triagens7avocado13AvocadoServerC1EiPPc
   fun:main
}

{
   <insert_a_suppression_name_here>
   Memcheck:Leak
   fun:_Znwm
   fun:_ZNSs4_Rep9_S_createEmmRKSaIcE
   fun:_ZNSs12_S_constructIPKcEEPcT_S3_RKSaIcESt20forward_iterator_tag
   fun:_ZNSsC1EPKcRKSaIcE
   fun:_Z41__static_initialization_and_destruction_0ii
   fun:_GLOBAL__I__ZN8triagens4rest17ApplicationServer15OPTIONS_CMDLINEE
   obj:/home/huerth/fceller/AvocadoDB/avocado
   obj:/home/huerth/fceller/AvocadoDB/avocado
   obj:*
   fun:__libc_csu_init
   fun:(below main)
}

{
   <insert_a_suppression_name_here>
   Memcheck:Leak
   fun:_Znwm
   fun:_ZNSs4_Rep9_S_createEmmRKSaIcE
   fun:_ZNSs12_S_constructIPKcEEPcT_S3_RKSaIcESt20forward_iterator_tag
   fun:_ZNSsC1EPKcRKSaIcE
   fun:_ZN8triagens7avocado13AvocadoServerC1EiPPc
   fun:main
}

{
   <insert_a_suppression_name_here>
   Memcheck:Leak
   fun:_Znwm
   fun:_ZNSs4_Rep9_S_createEmmRKSaIcE
   fun:_ZNSs12_S_constructIPKcEEPcT_S3_RKSaIcESt20forward_iterator_tag
   fun:_ZNSsC1EPKcRKSaIcE
   fun:_ZN8triagens7avocado13AvocadoServerC1EiPPc
   fun:main
}

{
   <insert_a_suppression_name_here>
   Memcheck:Leak
   fun:_Znwm
   fun:_ZNSs4_Rep9_S_createEmmRKSaIcE
   fun:_ZNSs12_S_constructIPKcEEPcT_S3_RKSaIcESt20forward_iterator_tag
   fun:_ZNSsC1EPKcRKSaIcE
   fun:_Z41__static_initialization_and_destruction_0ii
   fun:_GLOBAL__I__ZN8triagens4rest17ApplicationServer15OPTIONS_CMDLINEE
   obj:/home/huerth/fceller/AvocadoDB/avocado
   obj:/home/huerth/fceller/AvocadoDB/avocado
   obj:*
   fun:__libc_csu_init
   fun:(below main)
}

{
   <insert_a_suppression_name_here>
   Memcheck:Leak
   fun:_Znwm
   fun:_ZN9__gnu_cxx13new_allocatorISt13_Rb_tree_nodeISt4pairIKSsN8triagens6basics25ProgramOptionsDescription13option_type_eEEEE8allocateEmPKv
   fun:_ZNSt8_Rb_treeISsSt4pairIKSsN8triagens6basics25ProgramOptionsDescription13option_type_eEESt10_Select1stIS6_ESt4lessISsESaIS6_EE11_M_get_nodeEv
   fun:_ZNSt8_Rb_treeISsSt4pairIKSsN8triagens6basics25ProgramOptionsDescription13option_type_eEESt10_Select1stIS6_ESt4lessISsESaIS6_EE14_M_create_nodeERKS6_
   fun:_ZNSt8_Rb_treeISsSt4pairIKSsN8triagens6basics25ProgramOptionsDescription13option_type_eEESt10_Select1stIS6_ESt4lessISsESaIS6_EE13_M_clone_nodeEPKSt13_Rb_tree_nodeIS6_E
   fun:_ZNSt8_Rb_treeISsSt4pairIKSsN8triagens6basics25ProgramOptionsDescription13option_type_eEESt10_Select1stIS6_ESt4lessISsESaIS6_EE7_M_copyEPKSt13_Rb_tree_nodeIS6_EPSE_
   fun:_ZNSt8_Rb_treeISsSt4pairIKSsN8triagens6basics25ProgramOptionsDescription13option_type_eEESt10_Select1stIS6_ESt4lessISsESaIS6_EE7_M_copyEPKSt13_Rb_tree_nodeIS6_EPSE_
   fun:_ZNSt8_Rb_treeISsSt4pairIKSsN8triagens6basics25ProgramOptionsDescription13option_type_eEESt10_Select1stIS6_ESt4lessISsESaIS6_EEC1ERKSC_
   fun:_ZNSt3mapISsN8triagens6basics25ProgramOptionsDescription13option_type_eESt4lessISsESaISt4pairIKSsS3_EEEC1ERKSA_
   fun:_ZN8triagens6basics25ProgramOptionsDescriptionC1ERKS1_
   fun:_ZN9__gnu_cxx13new_allocatorIN8triagens6basics25ProgramOptionsDescriptionEE9constructEPS3_RKS3_
   fun:_ZNSt6vectorIN8triagens6basics25ProgramOptionsDescriptionESaIS2_EE13_M_insert_auxEN9__gnu_cxx17__normal_iteratorIPS2_S4_EERKS2_
}

{
   <insert_a_suppression_name_here>
   Memcheck:Leak
   fun:_Znwm
   fun:_ZN9__gnu_cxx13new_allocatorISt13_Rb_tree_nodeISt4pairIKSsSsEEE8allocateEmPKv
   fun:_ZNSt8_Rb_treeISsSt4pairIKSsSsESt10_Select1stIS2_ESt4lessISsESaIS2_EE11_M_get_nodeEv
   fun:_ZNSt8_Rb_treeISsSt4pairIKSsSsESt10_Select1stIS2_ESt4lessISsESaIS2_EE14_M_create_nodeERKS2_
   fun:_ZNSt8_Rb_treeISsSt4pairIKSsSsESt10_Select1stIS2_ESt4lessISsESaIS2_EE13_M_clone_nodeEPKSt13_Rb_tree_nodeIS2_E
   fun:_ZNSt8_Rb_treeISsSt4pairIKSsSsESt10_Select1stIS2_ESt4lessISsESaIS2_EE7_M_copyEPKSt13_Rb_tree_nodeIS2_EPSA_
   fun:_ZNSt8_Rb_treeISsSt4pairIKSsSsESt10_Select1stIS2_ESt4lessISsESaIS2_EE7_M_copyEPKSt13_Rb_tree_nodeIS2_EPSA_
   fun:_ZNSt8_Rb_treeISsSt4pairIKSsSsESt10_Select1stIS2_ESt4lessISsESaIS2_EEC1ERKS8_
   fun:_ZNSt3mapISsSsSt4lessISsESaISt4pairIKSsSsEEEC1ERKS6_
   fun:_ZN8triagens6basics25ProgramOptionsDescriptionC1ERKS1_
   fun:_ZN9__gnu_cxx13new_allocatorIN8triagens6basics25ProgramOptionsDescriptionEE9constructEPS3_RKS3_
   fun:_ZNSt6vectorIN8triagens6basics25ProgramOptionsDescriptionESaIS2_EE13_M_insert_auxEN9__gnu_cxx17__normal_iteratorIPS2_S4_EERKS2_
}

{
   <insert_a_suppression_name_here>
   Memcheck:Leak
   fun:_Znwm
   fun:_ZN9__gnu_cxx13new_allocatorISt13_Rb_tree_nodeISt4pairIKSsSsEEE8allocateEmPKv
   fun:_ZNSt8_Rb_treeISsSt4pairIKSsSsESt10_Select1stIS2_ESt4lessISsESaIS2_EE11_M_get_nodeEv
   fun:_ZNSt8_Rb_treeISsSt4pairIKSsSsESt10_Select1stIS2_ESt4lessISsESaIS2_EE14_M_create_nodeERKS2_
   fun:_ZNSt8_Rb_treeISsSt4pairIKSsSsESt10_Select1stIS2_ESt4lessISsESaIS2_EE13_M_clone_nodeEPKSt13_Rb_tree_nodeIS2_E
   fun:_ZNSt8_Rb_treeISsSt4pairIKSsSsESt10_Select1stIS2_ESt4lessISsESaIS2_EE7_M_copyEPKSt13_Rb_tree_nodeIS2_EPSA_
   fun:_ZNSt8_Rb_treeISsSt4pairIKSsSsESt10_Select1stIS2_ESt4lessISsESaIS2_EE7_M_copyEPKSt13_Rb_tree_nodeIS2_EPSA_
   fun:_ZNSt8_Rb_treeISsSt4pairIKSsSsESt10_Select1stIS2_ESt4lessISsESaIS2_EEC1ERKS8_
   fun:_ZNSt3mapISsSsSt4lessISsESaISt4pairIKSsSsEEEC1ERKS6_
   fun:_ZN8triagens6basics25ProgramOptionsDescriptionC1ERKS1_
   fun:_ZSt10_ConstructIN8triagens6basics25ProgramOptionsDescriptionES2_EvPT_RKT0_
   fun:_ZNSt20__uninitialized_copyILb0EE18uninitialized_copyIPN8triagens6basics25ProgramOptionsDescriptionES5_EET0_T_S7_S6_
}

{
   <insert_a_suppression_name_here>
   Memcheck:Leak
   fun:_Znwm
   fun:_ZN9__gnu_cxx13new_allocatorISt13_Rb_tree_nodeISt4pairIKSsSsEEE8allocateEmPKv
   fun:_ZNSt8_Rb_treeISsSt4pairIKSsSsESt10_Select1stIS2_ESt4lessISsESaIS2_EE11_M_get_nodeEv
   fun:_ZNSt8_Rb_treeISsSt4pairIKSsSsESt10_Select1stIS2_ESt4lessISsESaIS2_EE14_M_create_nodeERKS2_
   fun:_ZNSt8_Rb_treeISsSt4pairIKSsSsESt10_Select1stIS2_ESt4lessISsESaIS2_EE13_M_clone_nodeEPKSt13_Rb_tree_nodeIS2_E
   fun:_ZNSt8_Rb_treeISsSt4pairIKSsSsESt10_Select1stIS2_ESt4lessISsESaIS2_EE7_M_copyEPKSt13_Rb_tree_nodeIS2_EPSA_
   fun:_ZNSt8_Rb_treeISsSt4pairIKSsSsESt10_Select1stIS2_ESt4lessISsESaIS2_EEC1ERKS8_
   fun:_ZNSt3mapISsSsSt4lessISsESaISt4pairIKSsSsEEEC1ERKS6_
   fun:_ZN8triagens6basics25ProgramOptionsDescriptionC1ERKS1_
   fun:_ZSt10_ConstructIN8triagens6basics25ProgramOptionsDescriptionES2_EvPT_RKT0_
   fun:_ZNSt20__uninitialized_copyILb0EE18uninitialized_copyIPN8triagens6basics25ProgramOptionsDescriptionES5_EET0_T_S7_S6_
   fun:_ZSt18uninitialized_copyIPN8triagens6basics25ProgramOptionsDescriptionES3_ET0_T_S5_S4_
}

{
   <insert_a_suppression_name_here>
   Memcheck:Leak
   fun:_Znwm
   fun:_ZN9__gnu_cxx13new_allocatorISt13_Rb_tree_nodeISt4pairIKSsN8triagens6basics25ProgramOptionsDescription13option_type_eEEEE8allocateEmPKv
   fun:_ZNSt8_Rb_treeISsSt4pairIKSsN8triagens6basics25ProgramOptionsDescription13option_type_eEESt10_Select1stIS6_ESt4lessISsESaIS6_EE11_M_get_nodeEv
   fun:_ZNSt8_Rb_treeISsSt4pairIKSsN8triagens6basics25ProgramOptionsDescription13option_type_eEESt10_Select1stIS6_ESt4lessISsESaIS6_EE14_M_create_nodeERKS6_
   fun:_ZNSt8_Rb_treeISsSt4pairIKSsN8triagens6basics25ProgramOptionsDescription13option_type_eEESt10_Select1stIS6_ESt4lessISsESaIS6_EE13_M_clone_nodeEPKSt13_Rb_tree_nodeIS6_E
   fun:_ZNSt8_Rb_treeISsSt4pairIKSsN8triagens6basics25ProgramOptionsDescription13option_type_eEESt10_Select1stIS6_ESt4lessISsESaIS6_EE7_M_copyEPKSt13_Rb_tree_nodeIS6_EPSE_
   fun:_ZNSt8_Rb_treeISsSt4pairIKSsN8triagens6basics25ProgramOptionsDescription13option_type_eEESt10_Select1stIS6_ESt4lessISsESaIS6_EE7_M_copyEPKSt13_Rb_tree_nodeIS6_EPSE_
   fun:_ZNSt8_Rb_treeISsSt4pairIKSsN8triagens6basics25ProgramOptionsDescription13option_type_eEESt10_Select1stIS6_ESt4lessISsESaIS6_EEC1ERKSC_
   fun:_ZNSt3mapISsN8triagens6basics25ProgramOptionsDescription13option_type_eESt4lessISsESaISt4pairIKSsS3_EEEC1ERKSA_
   fun:_ZN8triagens6basics25ProgramOptionsDescriptionC1ERKS1_
   fun:_ZN9__gnu_cxx13new_allocatorIN8triagens6basics25ProgramOptionsDescriptionEE9constructEPS3_RKS3_
   fun:_ZNSt6vectorIN8triagens6basics25ProgramOptionsDescriptionESaIS2_EE9push_backERKS2_
}

{
   <insert_a_suppression_name_here>
   Memcheck:Leak
   fun:_Znwm
   fun:_ZN9__gnu_cxx13new_allocatorISt13_Rb_tree_nodeISt4pairIKSsSsEEE8allocateEmPKv
   fun:_ZNSt8_Rb_treeISsSt4pairIKSsSsESt10_Select1stIS2_ESt4lessISsESaIS2_EE11_M_get_nodeEv
   fun:_ZNSt8_Rb_treeISsSt4pairIKSsSsESt10_Select1stIS2_ESt4lessISsESaIS2_EE14_M_create_nodeERKS2_
   fun:_ZNSt8_Rb_treeISsSt4pairIKSsSsESt10_Select1stIS2_ESt4lessISsESaIS2_EE13_M_clone_nodeEPKSt13_Rb_tree_nodeIS2_E
   fun:_ZNSt8_Rb_treeISsSt4pairIKSsSsESt10_Select1stIS2_ESt4lessISsESaIS2_EE7_M_copyEPKSt13_Rb_tree_nodeIS2_EPSA_
   fun:_ZNSt8_Rb_treeISsSt4pairIKSsSsESt10_Select1stIS2_ESt4lessISsESaIS2_EE7_M_copyEPKSt13_Rb_tree_nodeIS2_EPSA_
   fun:_ZNSt8_Rb_treeISsSt4pairIKSsSsESt10_Select1stIS2_ESt4lessISsESaIS2_EEC1ERKS8_
   fun:_ZNSt3mapISsSsSt4lessISsESaISt4pairIKSsSsEEEC1ERKS6_
   fun:_ZN8triagens6basics25ProgramOptionsDescriptionC1ERKS1_
   fun:_ZN9__gnu_cxx13new_allocatorIN8triagens6basics25ProgramOptionsDescriptionEE9constructEPS3_RKS3_
   fun:_ZNSt6vectorIN8triagens6basics25ProgramOptionsDescriptionESaIS2_EE9push_backERKS2_
}

{
   <insert_a_suppression_name_here>
   Memcheck:Leak
   fun:_Znwm
   fun:_ZN9__gnu_cxx13new_allocatorISt13_Rb_tree_nodeISt4pairIKSsPjEEE8allocateEmPKv
   fun:_ZNSt8_Rb_treeISsSt4pairIKSsPjESt10_Select1stIS3_ESt4lessISsESaIS3_EE11_M_get_nodeEv
   fun:_ZNSt8_Rb_treeISsSt4pairIKSsPjESt10_Select1stIS3_ESt4lessISsESaIS3_EE14_M_create_nodeERKS3_
   fun:_ZNSt8_Rb_treeISsSt4pairIKSsPjESt10_Select1stIS3_ESt4lessISsESaIS3_EE13_M_clone_nodeEPKSt13_Rb_tree_nodeIS3_E
   fun:_ZNSt8_Rb_treeISsSt4pairIKSsPjESt10_Select1stIS3_ESt4lessISsESaIS3_EE7_M_copyEPKSt13_Rb_tree_nodeIS3_EPSB_
   fun:_ZNSt8_Rb_treeISsSt4pairIKSsPjESt10_Select1stIS3_ESt4lessISsESaIS3_EE7_M_copyEPKSt13_Rb_tree_nodeIS3_EPSB_
   fun:_ZNSt8_Rb_treeISsSt4pairIKSsPjESt10_Select1stIS3_ESt4lessISsESaIS3_EEC1ERKS9_
   fun:_ZNSt3mapISsPjSt4lessISsESaISt4pairIKSsS0_EEEC1ERKS7_
   fun:_ZN8triagens6basics25ProgramOptionsDescriptionC1ERKS1_
   fun:_ZN9__gnu_cxx13new_allocatorIN8triagens6basics25ProgramOptionsDescriptionEE9constructEPS3_RKS3_
   fun:_ZNSt6vectorIN8triagens6basics25ProgramOptionsDescriptionESaIS2_EE9push_backERKS2_
}

{
   <insert_a_suppression_name_here>
   Memcheck:Leak
   fun:_Znwm
   fun:_ZN9__gnu_cxx13new_allocatorISt13_Rb_tree_nodeISt4pairIKSsPjEEE8allocateEmPKv
   fun:_ZNSt8_Rb_treeISsSt4pairIKSsPjESt10_Select1stIS3_ESt4lessISsESaIS3_EE11_M_get_nodeEv
   fun:_ZNSt8_Rb_treeISsSt4pairIKSsPjESt10_Select1stIS3_ESt4lessISsESaIS3_EE14_M_create_nodeERKS3_
   fun:_ZNSt8_Rb_treeISsSt4pairIKSsPjESt10_Select1stIS3_ESt4lessISsESaIS3_EE13_M_clone_nodeEPKSt13_Rb_tree_nodeIS3_E
   fun:_ZNSt8_Rb_treeISsSt4pairIKSsPjESt10_Select1stIS3_ESt4lessISsESaIS3_EE7_M_copyEPKSt13_Rb_tree_nodeIS3_EPSB_
   fun:_ZNSt8_Rb_treeISsSt4pairIKSsPjESt10_Select1stIS3_ESt4lessISsESaIS3_EE7_M_copyEPKSt13_Rb_tree_nodeIS3_EPSB_
   fun:_ZNSt8_Rb_treeISsSt4pairIKSsPjESt10_Select1stIS3_ESt4lessISsESaIS3_EEC1ERKS9_
   fun:_ZNSt3mapISsPjSt4lessISsESaISt4pairIKSsS0_EEEC1ERKS7_
   fun:_ZN8triagens6basics25ProgramOptionsDescriptionC1ERKS1_
   fun:_ZN9__gnu_cxx13new_allocatorIN8triagens6basics25ProgramOptionsDescriptionEE9constructEPS3_RKS3_
   fun:_ZNSt6vectorIN8triagens6basics25ProgramOptionsDescriptionESaIS2_EE9push_backERKS2_
}

{
   <insert_a_suppression_name_here>
   Memcheck:Leak
   fun:_Znwm
   fun:_ZN9__gnu_cxx13new_allocatorISt13_Rb_tree_nodeISt4pairIKSsPjEEE8allocateEmPKv
   fun:_ZNSt8_Rb_treeISsSt4pairIKSsPjESt10_Select1stIS3_ESt4lessISsESaIS3_EE11_M_get_nodeEv
   fun:_ZNSt8_Rb_treeISsSt4pairIKSsPjESt10_Select1stIS3_ESt4lessISsESaIS3_EE14_M_create_nodeERKS3_
   fun:_ZNSt8_Rb_treeISsSt4pairIKSsPjESt10_Select1stIS3_ESt4lessISsESaIS3_EE13_M_clone_nodeEPKSt13_Rb_tree_nodeIS3_E
   fun:_ZNSt8_Rb_treeISsSt4pairIKSsPjESt10_Select1stIS3_ESt4lessISsESaIS3_EE7_M_copyEPKSt13_Rb_tree_nodeIS3_EPSB_
   fun:_ZNSt8_Rb_treeISsSt4pairIKSsPjESt10_Select1stIS3_ESt4lessISsESaIS3_EEC1ERKS9_
   fun:_ZNSt3mapISsPjSt4lessISsESaISt4pairIKSsS0_EEEC1ERKS7_
   fun:_ZN8triagens6basics25ProgramOptionsDescriptionC1ERKS1_
   fun:_ZN9__gnu_cxx13new_allocatorIN8triagens6basics25ProgramOptionsDescriptionEE9constructEPS3_RKS3_
   fun:_ZNSt6vectorIN8triagens6basics25ProgramOptionsDescriptionESaIS2_EE13_M_insert_auxEN9__gnu_cxx17__normal_iteratorIPS2_S4_EERKS2_
   fun:_ZNSt6vectorIN8triagens6basics25ProgramOptionsDescriptionESaIS2_EE9push_backERKS2_
}

{
   <insert_a_suppression_name_here>
   Memcheck:Leak
   fun:_Znwm
   fun:_ZN9__gnu_cxx13new_allocatorISt13_Rb_tree_nodeISt4pairIKSsPjEEE8allocateEmPKv
   fun:_ZNSt8_Rb_treeISsSt4pairIKSsPjESt10_Select1stIS3_ESt4lessISsESaIS3_EE11_M_get_nodeEv
   fun:_ZNSt8_Rb_treeISsSt4pairIKSsPjESt10_Select1stIS3_ESt4lessISsESaIS3_EE14_M_create_nodeERKS3_
   fun:_ZNSt8_Rb_treeISsSt4pairIKSsPjESt10_Select1stIS3_ESt4lessISsESaIS3_EE13_M_clone_nodeEPKSt13_Rb_tree_nodeIS3_E
   fun:_ZNSt8_Rb_treeISsSt4pairIKSsPjESt10_Select1stIS3_ESt4lessISsESaIS3_EE7_M_copyEPKSt13_Rb_tree_nodeIS3_EPSB_
   fun:_ZNSt8_Rb_treeISsSt4pairIKSsPjESt10_Select1stIS3_ESt4lessISsESaIS3_EE7_M_copyEPKSt13_Rb_tree_nodeIS3_EPSB_
   fun:_ZNSt8_Rb_treeISsSt4pairIKSsPjESt10_Select1stIS3_ESt4lessISsESaIS3_EEC1ERKS9_
   fun:_ZNSt3mapISsPjSt4lessISsESaISt4pairIKSsS0_EEEC1ERKS7_
   fun:_ZN8triagens6basics25ProgramOptionsDescriptionC1ERKS1_
   fun:_ZN9__gnu_cxx13new_allocatorIN8triagens6basics25ProgramOptionsDescriptionEE9constructEPS3_RKS3_
   fun:_ZNSt6vectorIN8triagens6basics25ProgramOptionsDescriptionESaIS2_EE13_M_insert_auxEN9__gnu_cxx17__normal_iteratorIPS2_S4_EERKS2_
}

{
   <insert_a_suppression_name_here>
   Memcheck:Leak
   fun:_Znwm
   fun:_ZN9__gnu_cxx13new_allocatorISt13_Rb_tree_nodeISt4pairIKSsPjEEE8allocateEmPKv
   fun:_ZNSt8_Rb_treeISsSt4pairIKSsPjESt10_Select1stIS3_ESt4lessISsESaIS3_EE11_M_get_nodeEv
   fun:_ZNSt8_Rb_treeISsSt4pairIKSsPjESt10_Select1stIS3_ESt4lessISsESaIS3_EE14_M_create_nodeERKS3_
   fun:_ZNSt8_Rb_treeISsSt4pairIKSsPjESt10_Select1stIS3_ESt4lessISsESaIS3_EE13_M_clone_nodeEPKSt13_Rb_tree_nodeIS3_E
   fun:_ZNSt8_Rb_treeISsSt4pairIKSsPjESt10_Select1stIS3_ESt4lessISsESaIS3_EE7_M_copyEPKSt13_Rb_tree_nodeIS3_EPSB_
   fun:_ZNSt8_Rb_treeISsSt4pairIKSsPjESt10_Select1stIS3_ESt4lessISsESaIS3_EE7_M_copyEPKSt13_Rb_tree_nodeIS3_EPSB_
   fun:_ZNSt8_Rb_treeISsSt4pairIKSsPjESt10_Select1stIS3_ESt4lessISsESaIS3_EEC1ERKS9_
   fun:_ZNSt3mapISsPjSt4lessISsESaISt4pairIKSsS0_EEEC1ERKS7_
   fun:_ZN8triagens6basics25ProgramOptionsDescriptionC1ERKS1_
   fun:_ZN9__gnu_cxx13new_allocatorIN8triagens6basics25ProgramOptionsDescriptionEE9constructEPS3_RKS3_
   fun:_ZNSt6vectorIN8triagens6basics25ProgramOptionsDescriptionESaIS2_EE13_M_insert_auxEN9__gnu_cxx17__normal_iteratorIPS2_S4_EERKS2_
}

{
   <insert_a_suppression_name_here>
   Memcheck:Leak
   fun:_Znwm
   fun:_ZN9__gnu_cxx13new_allocatorISt13_Rb_tree_nodeISt4pairIKSsPjEEE8allocateEmPKv
   fun:_ZNSt8_Rb_treeISsSt4pairIKSsPjESt10_Select1stIS3_ESt4lessISsESaIS3_EE11_M_get_nodeEv
   fun:_ZNSt8_Rb_treeISsSt4pairIKSsPjESt10_Select1stIS3_ESt4lessISsESaIS3_EE14_M_create_nodeERKS3_
   fun:_ZNSt8_Rb_treeISsSt4pairIKSsPjESt10_Select1stIS3_ESt4lessISsESaIS3_EE13_M_clone_nodeEPKSt13_Rb_tree_nodeIS3_E
   fun:_ZNSt8_Rb_treeISsSt4pairIKSsPjESt10_Select1stIS3_ESt4lessISsESaIS3_EE7_M_copyEPKSt13_Rb_tree_nodeIS3_EPSB_
   fun:_ZNSt8_Rb_treeISsSt4pairIKSsPjESt10_Select1stIS3_ESt4lessISsESaIS3_EEC1ERKS9_
   fun:_ZNSt3mapISsPjSt4lessISsESaISt4pairIKSsS0_EEEC1ERKS7_
   fun:_ZN8triagens6basics25ProgramOptionsDescriptionC1ERKS1_
   fun:_ZN9__gnu_cxx13new_allocatorIN8triagens6basics25ProgramOptionsDescriptionEE9constructEPS3_RKS3_
   fun:_ZNSt6vectorIN8triagens6basics25ProgramOptionsDescriptionESaIS2_EE13_M_insert_auxEN9__gnu_cxx17__normal_iteratorIPS2_S4_EERKS2_
   fun:_ZNSt6vectorIN8triagens6basics25ProgramOptionsDescriptionESaIS2_EE9push_backERKS2_
}

{
   <insert_a_suppression_name_here>
   Memcheck:Leak
   fun:_Znwm
   fun:_ZN9__gnu_cxx13new_allocatorISt13_Rb_tree_nodeISt4pairIKSsPdEEE8allocateEmPKv
   fun:_ZNSt8_Rb_treeISsSt4pairIKSsPdESt10_Select1stIS3_ESt4lessISsESaIS3_EE11_M_get_nodeEv
   fun:_ZNSt8_Rb_treeISsSt4pairIKSsPdESt10_Select1stIS3_ESt4lessISsESaIS3_EE14_M_create_nodeERKS3_
   fun:_ZNSt8_Rb_treeISsSt4pairIKSsPdESt10_Select1stIS3_ESt4lessISsESaIS3_EE13_M_clone_nodeEPKSt13_Rb_tree_nodeIS3_E
   fun:_ZNSt8_Rb_treeISsSt4pairIKSsPdESt10_Select1stIS3_ESt4lessISsESaIS3_EE7_M_copyEPKSt13_Rb_tree_nodeIS3_EPSB_
   fun:_ZNSt8_Rb_treeISsSt4pairIKSsPdESt10_Select1stIS3_ESt4lessISsESaIS3_EEC1ERKS9_
   fun:_ZNSt3mapISsPdSt4lessISsESaISt4pairIKSsS0_EEEC1ERKS7_
   fun:_ZN8triagens6basics25ProgramOptionsDescriptionC1ERKS1_
   fun:_ZN9__gnu_cxx13new_allocatorIN8triagens6basics25ProgramOptionsDescriptionEE9constructEPS3_RKS3_
   fun:_ZNSt6vectorIN8triagens6basics25ProgramOptionsDescriptionESaIS2_EE13_M_insert_auxEN9__gnu_cxx17__normal_iteratorIPS2_S4_EERKS2_
   fun:_ZNSt6vectorIN8triagens6basics25ProgramOptionsDescriptionESaIS2_EE9push_backERKS2_
}

{
   <insert_a_suppression_name_here>
   Memcheck:Leak
   fun:_Znwm
   fun:_ZN9__gnu_cxx13new_allocatorISt13_Rb_tree_nodeISt4pairIKSsPPcEEE8allocateEmPKv
   fun:_ZNSt8_Rb_treeISsSt4pairIKSsPPcESt10_Select1stIS4_ESt4lessISsESaIS4_EE11_M_get_nodeEv
   fun:_ZNSt8_Rb_treeISsSt4pairIKSsPPcESt10_Select1stIS4_ESt4lessISsESaIS4_EE14_M_create_nodeERKS4_
   fun:_ZNSt8_Rb_treeISsSt4pairIKSsPPcESt10_Select1stIS4_ESt4lessISsESaIS4_EE10_M_insert_EPKSt18_Rb_tree_node_baseSD_RKS4_
   fun:_ZNSt8_Rb_treeISsSt4pairIKSsPPcESt10_Select1stIS4_ESt4lessISsESaIS4_EE16_M_insert_uniqueERKS4_
   fun:_ZNSt8_Rb_treeISsSt4pairIKSsPPcESt10_Select1stIS4_ESt4lessISsESaIS4_EE17_M_insert_unique_ESt23_Rb_tree_const_iteratorIS4_ERKS4_
   fun:_ZNSt3mapISsPPcSt4lessISsESaISt4pairIKSsS1_EEE6insertESt17_Rb_tree_iteratorIS6_ERKS6_
   fun:_ZNSt3mapISsPPcSt4lessISsESaISt4pairIKSsS1_EEEixERS5_
   fun:_ZN8triagens6basics14ProgramOptions19setupSubDescriptionERKNS0_25ProgramOptionsDescriptionEP16TRI_PO_section_s
   fun:_ZN8triagens6basics14ProgramOptions19setupSubDescriptionERKNS0_25ProgramOptionsDescriptionEP16TRI_PO_section_s
   fun:_ZN8triagens6basics14ProgramOptions16setupDescriptionERKNS0_25ProgramOptionsDescriptionE
}

{
   <insert_a_suppression_name_here>
   Memcheck:Leak
   fun:_Znwm
   fun:_ZN9__gnu_cxx13new_allocatorISt13_Rb_tree_nodeISt4pairIKSsPPcEEE8allocateEmPKv
   fun:_ZNSt8_Rb_treeISsSt4pairIKSsPPcESt10_Select1stIS4_ESt4lessISsESaIS4_EE11_M_get_nodeEv
   fun:_ZNSt8_Rb_treeISsSt4pairIKSsPPcESt10_Select1stIS4_ESt4lessISsESaIS4_EE14_M_create_nodeERKS4_
   fun:_ZNSt8_Rb_treeISsSt4pairIKSsPPcESt10_Select1stIS4_ESt4lessISsESaIS4_EE10_M_insert_EPKSt18_Rb_tree_node_baseSD_RKS4_
   fun:_ZNSt8_Rb_treeISsSt4pairIKSsPPcESt10_Select1stIS4_ESt4lessISsESaIS4_EE17_M_insert_unique_ESt23_Rb_tree_const_iteratorIS4_ERKS4_
   fun:_ZNSt3mapISsPPcSt4lessISsESaISt4pairIKSsS1_EEE6insertESt17_Rb_tree_iteratorIS6_ERKS6_
   fun:_ZNSt3mapISsPPcSt4lessISsESaISt4pairIKSsS1_EEEixERS5_
   fun:_ZN8triagens6basics14ProgramOptions19setupSubDescriptionERKNS0_25ProgramOptionsDescriptionEP16TRI_PO_section_s
   fun:_ZN8triagens6basics14ProgramOptions19setupSubDescriptionERKNS0_25ProgramOptionsDescriptionEP16TRI_PO_section_s
   fun:_ZN8triagens6basics14ProgramOptions16setupDescriptionERKNS0_25ProgramOptionsDescriptionE
   fun:_ZN8triagens6basics14ProgramOptions5parseERKNS0_25ProgramOptionsDescriptionEiPPc
}

{
   <insert_a_suppression_name_here>
   Memcheck:Leak
   fun:_Znwm
   fun:_ZN9__gnu_cxx13new_allocatorISt13_Rb_tree_nodeISt4pairIKSsPPcEEE8allocateEmPKv
   fun:_ZNSt8_Rb_treeISsSt4pairIKSsPPcESt10_Select1stIS4_ESt4lessISsESaIS4_EE11_M_get_nodeEv
   fun:_ZNSt8_Rb_treeISsSt4pairIKSsPPcESt10_Select1stIS4_ESt4lessISsESaIS4_EE14_M_create_nodeERKS4_
   fun:_ZNSt8_Rb_treeISsSt4pairIKSsPPcESt10_Select1stIS4_ESt4lessISsESaIS4_EE10_M_insert_EPKSt18_Rb_tree_node_baseSD_RKS4_
   fun:_ZNSt8_Rb_treeISsSt4pairIKSsPPcESt10_Select1stIS4_ESt4lessISsESaIS4_EE17_M_insert_unique_ESt23_Rb_tree_const_iteratorIS4_ERKS4_
   fun:_ZNSt3mapISsPPcSt4lessISsESaISt4pairIKSsS1_EEE6insertESt17_Rb_tree_iteratorIS6_ERKS6_
   fun:_ZNSt3mapISsPPcSt4lessISsESaISt4pairIKSsS1_EEEixERS5_
   fun:_ZN8triagens6basics14ProgramOptions19setupSubDescriptionERKNS0_25ProgramOptionsDescriptionEP16TRI_PO_section_s
   fun:_ZN8triagens6basics14ProgramOptions19setupSubDescriptionERKNS0_25ProgramOptionsDescriptionEP16TRI_PO_section_s
   fun:_ZN8triagens6basics14ProgramOptions16setupDescriptionERKNS0_25ProgramOptionsDescriptionE
   fun:_ZN8triagens6basics14ProgramOptions5parseERKNS0_25ProgramOptionsDescriptionEiPPc
}

{
   <insert_a_suppression_name_here>
   Memcheck:Leak
   fun:_Znwm
   fun:_ZN9__gnu_cxx13new_allocatorISt13_Rb_tree_nodeISt4pairIKSsPPcEEE8allocateEmPKv
   fun:_ZNSt8_Rb_treeISsSt4pairIKSsPPcESt10_Select1stIS4_ESt4lessISsESaIS4_EE11_M_get_nodeEv
   fun:_ZNSt8_Rb_treeISsSt4pairIKSsPPcESt10_Select1stIS4_ESt4lessISsESaIS4_EE14_M_create_nodeERKS4_
   fun:_ZNSt8_Rb_treeISsSt4pairIKSsPPcESt10_Select1stIS4_ESt4lessISsESaIS4_EE10_M_insert_EPKSt18_Rb_tree_node_baseSD_RKS4_
   fun:_ZNSt8_Rb_treeISsSt4pairIKSsPPcESt10_Select1stIS4_ESt4lessISsESaIS4_EE17_M_insert_unique_ESt23_Rb_tree_const_iteratorIS4_ERKS4_
   fun:_ZNSt3mapISsPPcSt4lessISsESaISt4pairIKSsS1_EEE6insertESt17_Rb_tree_iteratorIS6_ERKS6_
   fun:_ZNSt3mapISsPPcSt4lessISsESaISt4pairIKSsS1_EEEixERS5_
   fun:_ZN8triagens6basics14ProgramOptions19setupSubDescriptionERKNS0_25ProgramOptionsDescriptionEP16TRI_PO_section_s
   fun:_ZN8triagens6basics14ProgramOptions19setupSubDescriptionERKNS0_25ProgramOptionsDescriptionEP16TRI_PO_section_s
   fun:_ZN8triagens6basics14ProgramOptions16setupDescriptionERKNS0_25ProgramOptionsDescriptionE
   fun:_ZN8triagens6basics14ProgramOptions5parseERKNS0_25ProgramOptionsDescriptionEiPPc
}

{
   <insert_a_suppression_name_here>
   Memcheck:Leak
   fun:_Znwm
   fun:_ZN9__gnu_cxx13new_allocatorISt13_Rb_tree_nodeISt4pairIKSsPbEEE8allocateEmPKv
   fun:_ZNSt8_Rb_treeISsSt4pairIKSsPbESt10_Select1stIS3_ESt4lessISsESaIS3_EE11_M_get_nodeEv
   fun:_ZNSt8_Rb_treeISsSt4pairIKSsPbESt10_Select1stIS3_ESt4lessISsESaIS3_EE14_M_create_nodeERKS3_
   fun:_ZNSt8_Rb_treeISsSt4pairIKSsPbESt10_Select1stIS3_ESt4lessISsESaIS3_EE10_M_insert_EPKSt18_Rb_tree_node_baseSC_RKS3_
   fun:_ZNSt8_Rb_treeISsSt4pairIKSsPbESt10_Select1stIS3_ESt4lessISsESaIS3_EE16_M_insert_uniqueERKS3_
   fun:_ZNSt8_Rb_treeISsSt4pairIKSsPbESt10_Select1stIS3_ESt4lessISsESaIS3_EE17_M_insert_unique_ESt23_Rb_tree_const_iteratorIS3_ERKS3_
   fun:_ZNSt3mapISsPbSt4lessISsESaISt4pairIKSsS0_EEE6insertESt17_Rb_tree_iteratorIS5_ERKS5_
   fun:_ZNSt3mapISsPbSt4lessISsESaISt4pairIKSsS0_EEEixERS4_
   fun:_ZN8triagens6basics14ProgramOptions13extractValuesERKNS0_25ProgramOptionsDescriptionEP21TRI_program_options_sSt3setISsSt4lessISsESaISsEE
   fun:_ZN8triagens6basics14ProgramOptions5parseERKNS0_25ProgramOptionsDescriptionEiPPc
   fun:_ZN8triagens4rest21ApplicationServerImpl5parseEiPPcSt3mapISsNS_6basics25ProgramOptionsDescriptionESt4lessISsESaISt4pairIKSsS6_EEE
}

{
   <insert_a_suppression_name_here>
   Memcheck:Leak
   fun:_Znwm
   fun:_ZN9__gnu_cxx13new_allocatorISt13_Rb_tree_nodeISsEE8allocateEmPKv
   fun:_ZNSt8_Rb_treeISsSsSt9_IdentityISsESt4lessISsESaISsEE11_M_get_nodeEv
   fun:_ZNSt8_Rb_treeISsSsSt9_IdentityISsESt4lessISsESaISsEE14_M_create_nodeERKSs
   fun:_ZNSt8_Rb_treeISsSsSt9_IdentityISsESt4lessISsESaISsEE13_M_clone_nodeEPKSt13_Rb_tree_nodeISsE
   fun:_ZNSt8_Rb_treeISsSsSt9_IdentityISsESt4lessISsESaISsEE7_M_copyEPKSt13_Rb_tree_nodeISsEPS7_
   fun:_ZNSt8_Rb_treeISsSsSt9_IdentityISsESt4lessISsESaISsEEC1ERKS5_
   fun:_ZNSt3setISsSt4lessISsESaISsEEC1ERKS3_
   fun:_ZN8triagens6basics25ProgramOptionsDescriptionC1ERKS1_
   fun:_ZN9__gnu_cxx13new_allocatorIN8triagens6basics25ProgramOptionsDescriptionEE9constructEPS3_RKS3_
   fun:_ZNSt6vectorIN8triagens6basics25ProgramOptionsDescriptionESaIS2_EE13_M_insert_auxEN9__gnu_cxx17__normal_iteratorIPS2_S4_EERKS2_
   fun:_ZNSt6vectorIN8triagens6basics25ProgramOptionsDescriptionESaIS2_EE9push_backERKS2_
}

{
   <insert_a_suppression_name_here>
   Memcheck:Leak
   fun:_Znwm
   fun:_ZN9__gnu_cxx13new_allocatorISt13_Rb_tree_nodeISt4pairIKSsN8triagens6basics25ProgramOptionsDescription13option_type_eEEEE8allocateEmPKv
   fun:_ZNSt8_Rb_treeISsSt4pairIKSsN8triagens6basics25ProgramOptionsDescription13option_type_eEESt10_Select1stIS6_ESt4lessISsESaIS6_EE11_M_get_nodeEv
   fun:_ZNSt8_Rb_treeISsSt4pairIKSsN8triagens6basics25ProgramOptionsDescription13option_type_eEESt10_Select1stIS6_ESt4lessISsESaIS6_EE14_M_create_nodeERKS6_
   fun:_ZNSt8_Rb_treeISsSt4pairIKSsN8triagens6basics25ProgramOptionsDescription13option_type_eEESt10_Select1stIS6_ESt4lessISsESaIS6_EE13_M_clone_nodeEPKSt13_Rb_tree_nodeIS6_E
   fun:_ZNSt8_Rb_treeISsSt4pairIKSsN8triagens6basics25ProgramOptionsDescription13option_type_eEESt10_Select1stIS6_ESt4lessISsESaIS6_EE7_M_copyEPKSt13_Rb_tree_nodeIS6_EPSE_
   fun:_ZNSt8_Rb_treeISsSt4pairIKSsN8triagens6basics25ProgramOptionsDescription13option_type_eEESt10_Select1stIS6_ESt4lessISsESaIS6_EE7_M_copyEPKSt13_Rb_tree_nodeIS6_EPSE_
   fun:_ZNSt8_Rb_treeISsSt4pairIKSsN8triagens6basics25ProgramOptionsDescription13option_type_eEESt10_Select1stIS6_ESt4lessISsESaIS6_EE7_M_copyEPKSt13_Rb_tree_nodeIS6_EPSE_
   fun:_ZNSt8_Rb_treeISsSt4pairIKSsN8triagens6basics25ProgramOptionsDescription13option_type_eEESt10_Select1stIS6_ESt4lessISsESaIS6_EEC1ERKSC_
   fun:_ZNSt3mapISsN8triagens6basics25ProgramOptionsDescription13option_type_eESt4lessISsESaISt4pairIKSsS3_EEEC1ERKSA_
   fun:_ZN8triagens6basics25ProgramOptionsDescriptionC1ERKS1_
   fun:_ZN9__gnu_cxx13new_allocatorIN8triagens6basics25ProgramOptionsDescriptionEE9constructEPS3_RKS3_
}

{
   <insert_a_suppression_name_here>
   Memcheck:Leak
   fun:_Znwm
   fun:_ZN9__gnu_cxx13new_allocatorISt13_Rb_tree_nodeISt4pairIKSsN8triagens6basics25ProgramOptionsDescription13option_type_eEEEE8allocateEmPKv
   fun:_ZNSt8_Rb_treeISsSt4pairIKSsN8triagens6basics25ProgramOptionsDescription13option_type_eEESt10_Select1stIS6_ESt4lessISsESaIS6_EE11_M_get_nodeEv
   fun:_ZNSt8_Rb_treeISsSt4pairIKSsN8triagens6basics25ProgramOptionsDescription13option_type_eEESt10_Select1stIS6_ESt4lessISsESaIS6_EE14_M_create_nodeERKS6_
   fun:_ZNSt8_Rb_treeISsSt4pairIKSsN8triagens6basics25ProgramOptionsDescription13option_type_eEESt10_Select1stIS6_ESt4lessISsESaIS6_EE13_M_clone_nodeEPKSt13_Rb_tree_nodeIS6_E
   fun:_ZNSt8_Rb_treeISsSt4pairIKSsN8triagens6basics25ProgramOptionsDescription13option_type_eEESt10_Select1stIS6_ESt4lessISsESaIS6_EE7_M_copyEPKSt13_Rb_tree_nodeIS6_EPSE_
   fun:_ZNSt8_Rb_treeISsSt4pairIKSsN8triagens6basics25ProgramOptionsDescription13option_type_eEESt10_Select1stIS6_ESt4lessISsESaIS6_EE7_M_copyEPKSt13_Rb_tree_nodeIS6_EPSE_
   fun:_ZNSt8_Rb_treeISsSt4pairIKSsN8triagens6basics25ProgramOptionsDescription13option_type_eEESt10_Select1stIS6_ESt4lessISsESaIS6_EEC1ERKSC_
   fun:_ZNSt3mapISsN8triagens6basics25ProgramOptionsDescription13option_type_eESt4lessISsESaISt4pairIKSsS3_EEEC1ERKSA_
   fun:_ZN8triagens6basics25ProgramOptionsDescriptionC1ERKS1_
   fun:_ZN9__gnu_cxx13new_allocatorIN8triagens6basics25ProgramOptionsDescriptionEE9constructEPS3_RKS3_
   fun:_ZNSt6vectorIN8triagens6basics25ProgramOptionsDescriptionESaIS2_EE13_M_insert_auxEN9__gnu_cxx17__normal_iteratorIPS2_S4_EERKS2_
}

{
   <insert_a_suppression_name_here>
   Memcheck:Leak
   fun:_Znwm
   fun:_ZN9__gnu_cxx13new_allocatorISt13_Rb_tree_nodeISt4pairIKSsSsEEE8allocateEmPKv
   fun:_ZNSt8_Rb_treeISsSt4pairIKSsSsESt10_Select1stIS2_ESt4lessISsESaIS2_EE11_M_get_nodeEv
   fun:_ZNSt8_Rb_treeISsSt4pairIKSsSsESt10_Select1stIS2_ESt4lessISsESaIS2_EE14_M_create_nodeERKS2_
   fun:_ZNSt8_Rb_treeISsSt4pairIKSsSsESt10_Select1stIS2_ESt4lessISsESaIS2_EE13_M_clone_nodeEPKSt13_Rb_tree_nodeIS2_E
   fun:_ZNSt8_Rb_treeISsSt4pairIKSsSsESt10_Select1stIS2_ESt4lessISsESaIS2_EE7_M_copyEPKSt13_Rb_tree_nodeIS2_EPSA_
   fun:_ZNSt8_Rb_treeISsSt4pairIKSsSsESt10_Select1stIS2_ESt4lessISsESaIS2_EE7_M_copyEPKSt13_Rb_tree_nodeIS2_EPSA_
   fun:_ZNSt8_Rb_treeISsSt4pairIKSsSsESt10_Select1stIS2_ESt4lessISsESaIS2_EE7_M_copyEPKSt13_Rb_tree_nodeIS2_EPSA_
   fun:_ZNSt8_Rb_treeISsSt4pairIKSsSsESt10_Select1stIS2_ESt4lessISsESaIS2_EEC1ERKS8_
   fun:_ZNSt3mapISsSsSt4lessISsESaISt4pairIKSsSsEEEC1ERKS6_
   fun:_ZN8triagens6basics25ProgramOptionsDescriptionC1ERKS1_
   fun:_ZN9__gnu_cxx13new_allocatorIN8triagens6basics25ProgramOptionsDescriptionEE9constructEPS3_RKS3_
}

{
   <insert_a_suppression_name_here>
   Memcheck:Leak
   fun:_Znwm
   fun:_ZN9__gnu_cxx13new_allocatorISt13_Rb_tree_nodeISt4pairIKSsSsEEE8allocateEmPKv
   fun:_ZNSt8_Rb_treeISsSt4pairIKSsSsESt10_Select1stIS2_ESt4lessISsESaIS2_EE11_M_get_nodeEv
   fun:_ZNSt8_Rb_treeISsSt4pairIKSsSsESt10_Select1stIS2_ESt4lessISsESaIS2_EE14_M_create_nodeERKS2_
   fun:_ZNSt8_Rb_treeISsSt4pairIKSsSsESt10_Select1stIS2_ESt4lessISsESaIS2_EE13_M_clone_nodeEPKSt13_Rb_tree_nodeIS2_E
   fun:_ZNSt8_Rb_treeISsSt4pairIKSsSsESt10_Select1stIS2_ESt4lessISsESaIS2_EE7_M_copyEPKSt13_Rb_tree_nodeIS2_EPSA_
   fun:_ZNSt8_Rb_treeISsSt4pairIKSsSsESt10_Select1stIS2_ESt4lessISsESaIS2_EE7_M_copyEPKSt13_Rb_tree_nodeIS2_EPSA_
   fun:_ZNSt8_Rb_treeISsSt4pairIKSsSsESt10_Select1stIS2_ESt4lessISsESaIS2_EEC1ERKS8_
   fun:_ZNSt3mapISsSsSt4lessISsESaISt4pairIKSsSsEEEC1ERKS6_
   fun:_ZN8triagens6basics25ProgramOptionsDescriptionC1ERKS1_
   fun:_ZN9__gnu_cxx13new_allocatorIN8triagens6basics25ProgramOptionsDescriptionEE9constructEPS3_RKS3_
   fun:_ZNSt6vectorIN8triagens6basics25ProgramOptionsDescriptionESaIS2_EE13_M_insert_auxEN9__gnu_cxx17__normal_iteratorIPS2_S4_EERKS2_
}

{
   <insert_a_suppression_name_here>
   Memcheck:Leak
   fun:_Znwm
   fun:_ZN9__gnu_cxx13new_allocatorISt13_Rb_tree_nodeISt4pairIKSsPSsEEE8allocateEmPKv
   fun:_ZNSt8_Rb_treeISsSt4pairIKSsPSsESt10_Select1stIS3_ESt4lessISsESaIS3_EE11_M_get_nodeEv
   fun:_ZNSt8_Rb_treeISsSt4pairIKSsPSsESt10_Select1stIS3_ESt4lessISsESaIS3_EE14_M_create_nodeERKS3_
   fun:_ZNSt8_Rb_treeISsSt4pairIKSsPSsESt10_Select1stIS3_ESt4lessISsESaIS3_EE13_M_clone_nodeEPKSt13_Rb_tree_nodeIS3_E
   fun:_ZNSt8_Rb_treeISsSt4pairIKSsPSsESt10_Select1stIS3_ESt4lessISsESaIS3_EE7_M_copyEPKSt13_Rb_tree_nodeIS3_EPSB_
   fun:_ZNSt8_Rb_treeISsSt4pairIKSsPSsESt10_Select1stIS3_ESt4lessISsESaIS3_EE7_M_copyEPKSt13_Rb_tree_nodeIS3_EPSB_
   fun:_ZNSt8_Rb_treeISsSt4pairIKSsPSsESt10_Select1stIS3_ESt4lessISsESaIS3_EE7_M_copyEPKSt13_Rb_tree_nodeIS3_EPSB_
   fun:_ZNSt8_Rb_treeISsSt4pairIKSsPSsESt10_Select1stIS3_ESt4lessISsESaIS3_EE7_M_copyEPKSt13_Rb_tree_nodeIS3_EPSB_
   fun:_ZNSt8_Rb_treeISsSt4pairIKSsPSsESt10_Select1stIS3_ESt4lessISsESaIS3_EEC1ERKS9_
   fun:_ZNSt3mapISsPSsSt4lessISsESaISt4pairIKSsS0_EEEC1ERKS7_
   fun:_ZN8triagens6basics25ProgramOptionsDescriptionC1ERKS1_
}

{
   <insert_a_suppression_name_here>
   Memcheck:Leak
   fun:_Znwm
   fun:_ZN9__gnu_cxx13new_allocatorISt13_Rb_tree_nodeISt4pairIKSsN8triagens6basics25ProgramOptionsDescription13option_type_eEEEE8allocateEmPKv
   fun:_ZNSt8_Rb_treeISsSt4pairIKSsN8triagens6basics25ProgramOptionsDescription13option_type_eEESt10_Select1stIS6_ESt4lessISsESaIS6_EE11_M_get_nodeEv
   fun:_ZNSt8_Rb_treeISsSt4pairIKSsN8triagens6basics25ProgramOptionsDescription13option_type_eEESt10_Select1stIS6_ESt4lessISsESaIS6_EE14_M_create_nodeERKS6_
   fun:_ZNSt8_Rb_treeISsSt4pairIKSsN8triagens6basics25ProgramOptionsDescription13option_type_eEESt10_Select1stIS6_ESt4lessISsESaIS6_EE13_M_clone_nodeEPKSt13_Rb_tree_nodeIS6_E
   fun:_ZNSt8_Rb_treeISsSt4pairIKSsN8triagens6basics25ProgramOptionsDescription13option_type_eEESt10_Select1stIS6_ESt4lessISsESaIS6_EE7_M_copyEPKSt13_Rb_tree_nodeIS6_EPSE_
   fun:_ZNSt8_Rb_treeISsSt4pairIKSsN8triagens6basics25ProgramOptionsDescription13option_type_eEESt10_Select1stIS6_ESt4lessISsESaIS6_EE7_M_copyEPKSt13_Rb_tree_nodeIS6_EPSE_
   fun:_ZNSt8_Rb_treeISsSt4pairIKSsN8triagens6basics25ProgramOptionsDescription13option_type_eEESt10_Select1stIS6_ESt4lessISsESaIS6_EE7_M_copyEPKSt13_Rb_tree_nodeIS6_EPSE_
   fun:_ZNSt8_Rb_treeISsSt4pairIKSsN8triagens6basics25ProgramOptionsDescription13option_type_eEESt10_Select1stIS6_ESt4lessISsESaIS6_EEC1ERKSC_
   fun:_ZNSt3mapISsN8triagens6basics25ProgramOptionsDescription13option_type_eESt4lessISsESaISt4pairIKSsS3_EEEC1ERKSA_
   fun:_ZN8triagens6basics25ProgramOptionsDescriptionC1ERKS1_
   fun:_ZN9__gnu_cxx13new_allocatorIN8triagens6basics25ProgramOptionsDescriptionEE9constructEPS3_RKS3_
}

{
   <insert_a_suppression_name_here>
   Memcheck:Leak
   fun:_Znwm
   fun:_ZN9__gnu_cxx13new_allocatorISt13_Rb_tree_nodeISt4pairIKSsN8triagens6basics25ProgramOptionsDescription13option_type_eEEEE8allocateEmPKv
   fun:_ZNSt8_Rb_treeISsSt4pairIKSsN8triagens6basics25ProgramOptionsDescription13option_type_eEESt10_Select1stIS6_ESt4lessISsESaIS6_EE11_M_get_nodeEv
   fun:_ZNSt8_Rb_treeISsSt4pairIKSsN8triagens6basics25ProgramOptionsDescription13option_type_eEESt10_Select1stIS6_ESt4lessISsESaIS6_EE14_M_create_nodeERKS6_
   fun:_ZNSt8_Rb_treeISsSt4pairIKSsN8triagens6basics25ProgramOptionsDescription13option_type_eEESt10_Select1stIS6_ESt4lessISsESaIS6_EE13_M_clone_nodeEPKSt13_Rb_tree_nodeIS6_E
   fun:_ZNSt8_Rb_treeISsSt4pairIKSsN8triagens6basics25ProgramOptionsDescription13option_type_eEESt10_Select1stIS6_ESt4lessISsESaIS6_EE7_M_copyEPKSt13_Rb_tree_nodeIS6_EPSE_
   fun:_ZNSt8_Rb_treeISsSt4pairIKSsN8triagens6basics25ProgramOptionsDescription13option_type_eEESt10_Select1stIS6_ESt4lessISsESaIS6_EE7_M_copyEPKSt13_Rb_tree_nodeIS6_EPSE_
   fun:_ZNSt8_Rb_treeISsSt4pairIKSsN8triagens6basics25ProgramOptionsDescription13option_type_eEESt10_Select1stIS6_ESt4lessISsESaIS6_EEC1ERKSC_
   fun:_ZNSt3mapISsN8triagens6basics25ProgramOptionsDescription13option_type_eESt4lessISsESaISt4pairIKSsS3_EEEC1ERKSA_
   fun:_ZN8triagens6basics25ProgramOptionsDescriptionC1ERKS1_
   fun:_ZN9__gnu_cxx13new_allocatorIN8triagens6basics25ProgramOptionsDescriptionEE9constructEPS3_RKS3_
   fun:_ZNSt6vectorIN8triagens6basics25ProgramOptionsDescriptionESaIS2_EE9push_backERKS2_
}

{
   <insert_a_suppression_name_here>
   Memcheck:Leak
   fun:_Znwm
   fun:_ZN9__gnu_cxx13new_allocatorISt13_Rb_tree_nodeISt4pairIKSsSsEEE8allocateEmPKv
   fun:_ZNSt8_Rb_treeISsSt4pairIKSsSsESt10_Select1stIS2_ESt4lessISsESaIS2_EE11_M_get_nodeEv
   fun:_ZNSt8_Rb_treeISsSt4pairIKSsSsESt10_Select1stIS2_ESt4lessISsESaIS2_EE14_M_create_nodeERKS2_
   fun:_ZNSt8_Rb_treeISsSt4pairIKSsSsESt10_Select1stIS2_ESt4lessISsESaIS2_EE13_M_clone_nodeEPKSt13_Rb_tree_nodeIS2_E
   fun:_ZNSt8_Rb_treeISsSt4pairIKSsSsESt10_Select1stIS2_ESt4lessISsESaIS2_EE7_M_copyEPKSt13_Rb_tree_nodeIS2_EPSA_
   fun:_ZNSt8_Rb_treeISsSt4pairIKSsSsESt10_Select1stIS2_ESt4lessISsESaIS2_EE7_M_copyEPKSt13_Rb_tree_nodeIS2_EPSA_
   fun:_ZNSt8_Rb_treeISsSt4pairIKSsSsESt10_Select1stIS2_ESt4lessISsESaIS2_EE7_M_copyEPKSt13_Rb_tree_nodeIS2_EPSA_
   fun:_ZNSt8_Rb_treeISsSt4pairIKSsSsESt10_Select1stIS2_ESt4lessISsESaIS2_EEC1ERKS8_
   fun:_ZNSt3mapISsSsSt4lessISsESaISt4pairIKSsSsEEEC1ERKS6_
   fun:_ZN8triagens6basics25ProgramOptionsDescriptionC1ERKS1_
   fun:_ZN9__gnu_cxx13new_allocatorIN8triagens6basics25ProgramOptionsDescriptionEE9constructEPS3_RKS3_
}

{
   <insert_a_suppression_name_here>
   Memcheck:Leak
   fun:_Znwm
   fun:_ZN9__gnu_cxx13new_allocatorISt13_Rb_tree_nodeISt4pairIKSsSsEEE8allocateEmPKv
   fun:_ZNSt8_Rb_treeISsSt4pairIKSsSsESt10_Select1stIS2_ESt4lessISsESaIS2_EE11_M_get_nodeEv
   fun:_ZNSt8_Rb_treeISsSt4pairIKSsSsESt10_Select1stIS2_ESt4lessISsESaIS2_EE14_M_create_nodeERKS2_
   fun:_ZNSt8_Rb_treeISsSt4pairIKSsSsESt10_Select1stIS2_ESt4lessISsESaIS2_EE13_M_clone_nodeEPKSt13_Rb_tree_nodeIS2_E
   fun:_ZNSt8_Rb_treeISsSt4pairIKSsSsESt10_Select1stIS2_ESt4lessISsESaIS2_EE7_M_copyEPKSt13_Rb_tree_nodeIS2_EPSA_
   fun:_ZNSt8_Rb_treeISsSt4pairIKSsSsESt10_Select1stIS2_ESt4lessISsESaIS2_EE7_M_copyEPKSt13_Rb_tree_nodeIS2_EPSA_
   fun:_ZNSt8_Rb_treeISsSt4pairIKSsSsESt10_Select1stIS2_ESt4lessISsESaIS2_EEC1ERKS8_
   fun:_ZNSt3mapISsSsSt4lessISsESaISt4pairIKSsSsEEEC1ERKS6_
   fun:_ZN8triagens6basics25ProgramOptionsDescriptionC1ERKS1_
   fun:_ZN9__gnu_cxx13new_allocatorIN8triagens6basics25ProgramOptionsDescriptionEE9constructEPS3_RKS3_
   fun:_ZNSt6vectorIN8triagens6basics25ProgramOptionsDescriptionESaIS2_EE9push_backERKS2_
}

{
   <insert_a_suppression_name_here>
   Memcheck:Leak
   fun:_Znwm
   fun:_ZN9__gnu_cxx13new_allocatorISt13_Rb_tree_nodeISt4pairIKSsN8triagens6basics25ProgramOptionsDescription13option_type_eEEEE8allocateEmPKv
   fun:_ZNSt8_Rb_treeISsSt4pairIKSsN8triagens6basics25ProgramOptionsDescription13option_type_eEESt10_Select1stIS6_ESt4lessISsESaIS6_EE11_M_get_nodeEv
   fun:_ZNSt8_Rb_treeISsSt4pairIKSsN8triagens6basics25ProgramOptionsDescription13option_type_eEESt10_Select1stIS6_ESt4lessISsESaIS6_EE14_M_create_nodeERKS6_
   fun:_ZNSt8_Rb_treeISsSt4pairIKSsN8triagens6basics25ProgramOptionsDescription13option_type_eEESt10_Select1stIS6_ESt4lessISsESaIS6_EE13_M_clone_nodeEPKSt13_Rb_tree_nodeIS6_E
   fun:_ZNSt8_Rb_treeISsSt4pairIKSsN8triagens6basics25ProgramOptionsDescription13option_type_eEESt10_Select1stIS6_ESt4lessISsESaIS6_EE7_M_copyEPKSt13_Rb_tree_nodeIS6_EPSE_
   fun:_ZNSt8_Rb_treeISsSt4pairIKSsN8triagens6basics25ProgramOptionsDescription13option_type_eEESt10_Select1stIS6_ESt4lessISsESaIS6_EE7_M_copyEPKSt13_Rb_tree_nodeIS6_EPSE_
   fun:_ZNSt8_Rb_treeISsSt4pairIKSsN8triagens6basics25ProgramOptionsDescription13option_type_eEESt10_Select1stIS6_ESt4lessISsESaIS6_EE7_M_copyEPKSt13_Rb_tree_nodeIS6_EPSE_
   fun:_ZNSt8_Rb_treeISsSt4pairIKSsN8triagens6basics25ProgramOptionsDescription13option_type_eEESt10_Select1stIS6_ESt4lessISsESaIS6_EEC1ERKSC_
   fun:_ZNSt3mapISsN8triagens6basics25ProgramOptionsDescription13option_type_eESt4lessISsESaISt4pairIKSsS3_EEEC1ERKSA_
   fun:_ZN8triagens6basics25ProgramOptionsDescriptionC1ERKS1_
   fun:_ZSt10_ConstructIN8triagens6basics25ProgramOptionsDescriptionES2_EvPT_RKT0_
}

{
   <insert_a_suppression_name_here>
   Memcheck:Leak
   fun:_Znwm
   fun:_ZN9__gnu_cxx13new_allocatorISt13_Rb_tree_nodeISt4pairIKSsSsEEE8allocateEmPKv
   fun:_ZNSt8_Rb_treeISsSt4pairIKSsSsESt10_Select1stIS2_ESt4lessISsESaIS2_EE11_M_get_nodeEv
   fun:_ZNSt8_Rb_treeISsSt4pairIKSsSsESt10_Select1stIS2_ESt4lessISsESaIS2_EE14_M_create_nodeERKS2_
   fun:_ZNSt8_Rb_treeISsSt4pairIKSsSsESt10_Select1stIS2_ESt4lessISsESaIS2_EE13_M_clone_nodeEPKSt13_Rb_tree_nodeIS2_E
   fun:_ZNSt8_Rb_treeISsSt4pairIKSsSsESt10_Select1stIS2_ESt4lessISsESaIS2_EE7_M_copyEPKSt13_Rb_tree_nodeIS2_EPSA_
   fun:_ZNSt8_Rb_treeISsSt4pairIKSsSsESt10_Select1stIS2_ESt4lessISsESaIS2_EE7_M_copyEPKSt13_Rb_tree_nodeIS2_EPSA_
   fun:_ZNSt8_Rb_treeISsSt4pairIKSsSsESt10_Select1stIS2_ESt4lessISsESaIS2_EE7_M_copyEPKSt13_Rb_tree_nodeIS2_EPSA_
   fun:_ZNSt8_Rb_treeISsSt4pairIKSsSsESt10_Select1stIS2_ESt4lessISsESaIS2_EEC1ERKS8_
   fun:_ZNSt3mapISsSsSt4lessISsESaISt4pairIKSsSsEEEC1ERKS6_
   fun:_ZN8triagens6basics25ProgramOptionsDescriptionC1ERKS1_
   fun:_ZSt10_ConstructIN8triagens6basics25ProgramOptionsDescriptionES2_EvPT_RKT0_
}

{
   <insert_a_suppression_name_here>
   Memcheck:Leak
   fun:_Znwm
   fun:_ZN9__gnu_cxx13new_allocatorISt13_Rb_tree_nodeISt4pairIKSsPSsEEE8allocateEmPKv
   fun:_ZNSt8_Rb_treeISsSt4pairIKSsPSsESt10_Select1stIS3_ESt4lessISsESaIS3_EE11_M_get_nodeEv
   fun:_ZNSt8_Rb_treeISsSt4pairIKSsPSsESt10_Select1stIS3_ESt4lessISsESaIS3_EE14_M_create_nodeERKS3_
   fun:_ZNSt8_Rb_treeISsSt4pairIKSsPSsESt10_Select1stIS3_ESt4lessISsESaIS3_EE13_M_clone_nodeEPKSt13_Rb_tree_nodeIS3_E
   fun:_ZNSt8_Rb_treeISsSt4pairIKSsPSsESt10_Select1stIS3_ESt4lessISsESaIS3_EE7_M_copyEPKSt13_Rb_tree_nodeIS3_EPSB_
   fun:_ZNSt8_Rb_treeISsSt4pairIKSsPSsESt10_Select1stIS3_ESt4lessISsESaIS3_EE7_M_copyEPKSt13_Rb_tree_nodeIS3_EPSB_
   fun:_ZNSt8_Rb_treeISsSt4pairIKSsPSsESt10_Select1stIS3_ESt4lessISsESaIS3_EE7_M_copyEPKSt13_Rb_tree_nodeIS3_EPSB_
   fun:_ZNSt8_Rb_treeISsSt4pairIKSsPSsESt10_Select1stIS3_ESt4lessISsESaIS3_EEC1ERKS9_
   fun:_ZNSt3mapISsPSsSt4lessISsESaISt4pairIKSsS0_EEEC1ERKS7_
   fun:_ZN8triagens6basics25ProgramOptionsDescriptionC1ERKS1_
   fun:_ZSt10_ConstructIN8triagens6basics25ProgramOptionsDescriptionES2_EvPT_RKT0_
}

{
   <insert_a_suppression_name_here>
   Memcheck:Leak
   fun:_Znwm
   fun:_ZN9__gnu_cxx13new_allocatorISt13_Rb_tree_nodeISt4pairIKSsPSsEEE8allocateEmPKv
   fun:_ZNSt8_Rb_treeISsSt4pairIKSsPSsESt10_Select1stIS3_ESt4lessISsESaIS3_EE11_M_get_nodeEv
   fun:_ZNSt8_Rb_treeISsSt4pairIKSsPSsESt10_Select1stIS3_ESt4lessISsESaIS3_EE14_M_create_nodeERKS3_
   fun:_ZNSt8_Rb_treeISsSt4pairIKSsPSsESt10_Select1stIS3_ESt4lessISsESaIS3_EE13_M_clone_nodeEPKSt13_Rb_tree_nodeIS3_E
   fun:_ZNSt8_Rb_treeISsSt4pairIKSsPSsESt10_Select1stIS3_ESt4lessISsESaIS3_EE7_M_copyEPKSt13_Rb_tree_nodeIS3_EPSB_
   fun:_ZNSt8_Rb_treeISsSt4pairIKSsPSsESt10_Select1stIS3_ESt4lessISsESaIS3_EE7_M_copyEPKSt13_Rb_tree_nodeIS3_EPSB_
   fun:_ZNSt8_Rb_treeISsSt4pairIKSsPSsESt10_Select1stIS3_ESt4lessISsESaIS3_EEC1ERKS9_
   fun:_ZNSt3mapISsPSsSt4lessISsESaISt4pairIKSsS0_EEEC1ERKS7_
   fun:_ZN8triagens6basics25ProgramOptionsDescriptionC1ERKS1_
   fun:_ZSt10_ConstructIN8triagens6basics25ProgramOptionsDescriptionES2_EvPT_RKT0_
   fun:_ZNSt20__uninitialized_copyILb0EE18uninitialized_copyIPN8triagens6basics25ProgramOptionsDescriptionES5_EET0_T_S7_S6_
}

{
   <insert_a_suppression_name_here>
   Memcheck:Leak
   fun:_Znwm
   fun:_ZN9__gnu_cxx13new_allocatorISt13_Rb_tree_nodeISt4pairIKSsPSsEEE8allocateEmPKv
   fun:_ZNSt8_Rb_treeISsSt4pairIKSsPSsESt10_Select1stIS3_ESt4lessISsESaIS3_EE11_M_get_nodeEv
   fun:_ZNSt8_Rb_treeISsSt4pairIKSsPSsESt10_Select1stIS3_ESt4lessISsESaIS3_EE14_M_create_nodeERKS3_
   fun:_ZNSt8_Rb_treeISsSt4pairIKSsPSsESt10_Select1stIS3_ESt4lessISsESaIS3_EE13_M_clone_nodeEPKSt13_Rb_tree_nodeIS3_E
   fun:_ZNSt8_Rb_treeISsSt4pairIKSsPSsESt10_Select1stIS3_ESt4lessISsESaIS3_EE7_M_copyEPKSt13_Rb_tree_nodeIS3_EPSB_
   fun:_ZNSt8_Rb_treeISsSt4pairIKSsPSsESt10_Select1stIS3_ESt4lessISsESaIS3_EE7_M_copyEPKSt13_Rb_tree_nodeIS3_EPSB_
   fun:_ZNSt8_Rb_treeISsSt4pairIKSsPSsESt10_Select1stIS3_ESt4lessISsESaIS3_EEC1ERKS9_
   fun:_ZNSt3mapISsPSsSt4lessISsESaISt4pairIKSsS0_EEEC1ERKS7_
   fun:_ZN8triagens6basics25ProgramOptionsDescriptionC1ERKS1_
   fun:_ZSt10_ConstructIN8triagens6basics25ProgramOptionsDescriptionES2_EvPT_RKT0_
   fun:_ZNSt20__uninitialized_copyILb0EE18uninitialized_copyIPN8triagens6basics25ProgramOptionsDescriptionES5_EET0_T_S7_S6_
}

{
   <insert_a_suppression_name_here>
   Memcheck:Leak
   fun:_Znwm
   fun:_ZN9__gnu_cxx13new_allocatorISt13_Rb_tree_nodeISt4pairIKSsN8triagens6basics25ProgramOptionsDescription13option_type_eEEEE8allocateEmPKv
   fun:_ZNSt8_Rb_treeISsSt4pairIKSsN8triagens6basics25ProgramOptionsDescription13option_type_eEESt10_Select1stIS6_ESt4lessISsESaIS6_EE11_M_get_nodeEv
   fun:_ZNSt8_Rb_treeISsSt4pairIKSsN8triagens6basics25ProgramOptionsDescription13option_type_eEESt10_Select1stIS6_ESt4lessISsESaIS6_EE14_M_create_nodeERKS6_
   fun:_ZNSt8_Rb_treeISsSt4pairIKSsN8triagens6basics25ProgramOptionsDescription13option_type_eEESt10_Select1stIS6_ESt4lessISsESaIS6_EE13_M_clone_nodeEPKSt13_Rb_tree_nodeIS6_E
   fun:_ZNSt8_Rb_treeISsSt4pairIKSsN8triagens6basics25ProgramOptionsDescription13option_type_eEESt10_Select1stIS6_ESt4lessISsESaIS6_EE7_M_copyEPKSt13_Rb_tree_nodeIS6_EPSE_
   fun:_ZNSt8_Rb_treeISsSt4pairIKSsN8triagens6basics25ProgramOptionsDescription13option_type_eEESt10_Select1stIS6_ESt4lessISsESaIS6_EE7_M_copyEPKSt13_Rb_tree_nodeIS6_EPSE_
   fun:_ZNSt8_Rb_treeISsSt4pairIKSsN8triagens6basics25ProgramOptionsDescription13option_type_eEESt10_Select1stIS6_ESt4lessISsESaIS6_EE7_M_copyEPKSt13_Rb_tree_nodeIS6_EPSE_
   fun:_ZNSt8_Rb_treeISsSt4pairIKSsN8triagens6basics25ProgramOptionsDescription13option_type_eEESt10_Select1stIS6_ESt4lessISsESaIS6_EEC1ERKSC_
   fun:_ZNSt3mapISsN8triagens6basics25ProgramOptionsDescription13option_type_eESt4lessISsESaISt4pairIKSsS3_EEEC1ERKSA_
   fun:_ZN8triagens6basics25ProgramOptionsDescriptionC1ERKS1_
   fun:_ZN9__gnu_cxx13new_allocatorIN8triagens6basics25ProgramOptionsDescriptionEE9constructEPS3_RKS3_
}

{
   <insert_a_suppression_name_here>
   Memcheck:Leak
   fun:_Znwm
   fun:_ZN9__gnu_cxx13new_allocatorISt13_Rb_tree_nodeISt4pairIKSsSsEEE8allocateEmPKv
   fun:_ZNSt8_Rb_treeISsSt4pairIKSsSsESt10_Select1stIS2_ESt4lessISsESaIS2_EE11_M_get_nodeEv
   fun:_ZNSt8_Rb_treeISsSt4pairIKSsSsESt10_Select1stIS2_ESt4lessISsESaIS2_EE14_M_create_nodeERKS2_
   fun:_ZNSt8_Rb_treeISsSt4pairIKSsSsESt10_Select1stIS2_ESt4lessISsESaIS2_EE13_M_clone_nodeEPKSt13_Rb_tree_nodeIS2_E
   fun:_ZNSt8_Rb_treeISsSt4pairIKSsSsESt10_Select1stIS2_ESt4lessISsESaIS2_EE7_M_copyEPKSt13_Rb_tree_nodeIS2_EPSA_
   fun:_ZNSt8_Rb_treeISsSt4pairIKSsSsESt10_Select1stIS2_ESt4lessISsESaIS2_EE7_M_copyEPKSt13_Rb_tree_nodeIS2_EPSA_
   fun:_ZNSt8_Rb_treeISsSt4pairIKSsSsESt10_Select1stIS2_ESt4lessISsESaIS2_EE7_M_copyEPKSt13_Rb_tree_nodeIS2_EPSA_
   fun:_ZNSt8_Rb_treeISsSt4pairIKSsSsESt10_Select1stIS2_ESt4lessISsESaIS2_EEC1ERKS8_
   fun:_ZNSt3mapISsSsSt4lessISsESaISt4pairIKSsSsEEEC1ERKS6_
   fun:_ZN8triagens6basics25ProgramOptionsDescriptionC1ERKS1_
   fun:_ZN9__gnu_cxx13new_allocatorIN8triagens6basics25ProgramOptionsDescriptionEE9constructEPS3_RKS3_
}

{
   <insert_a_suppression_name_here>
   Memcheck:Leak
   fun:_Znwm
   fun:_ZN9__gnu_cxx13new_allocatorISt13_Rb_tree_nodeISt4pairIKSsPPcEEE8allocateEmPKv
   fun:_ZNSt8_Rb_treeISsSt4pairIKSsPPcESt10_Select1stIS4_ESt4lessISsESaIS4_EE11_M_get_nodeEv
   fun:_ZNSt8_Rb_treeISsSt4pairIKSsPPcESt10_Select1stIS4_ESt4lessISsESaIS4_EE14_M_create_nodeERKS4_
   fun:_ZNSt8_Rb_treeISsSt4pairIKSsPPcESt10_Select1stIS4_ESt4lessISsESaIS4_EE10_M_insert_EPKSt18_Rb_tree_node_baseSD_RKS4_
   fun:_ZNSt8_Rb_treeISsSt4pairIKSsPPcESt10_Select1stIS4_ESt4lessISsESaIS4_EE17_M_insert_unique_ESt23_Rb_tree_const_iteratorIS4_ERKS4_
   fun:_ZNSt3mapISsPPcSt4lessISsESaISt4pairIKSsS1_EEE6insertESt17_Rb_tree_iteratorIS6_ERKS6_
   fun:_ZNSt3mapISsPPcSt4lessISsESaISt4pairIKSsS1_EEEixERS5_
   fun:_ZN8triagens6basics14ProgramOptions19setupSubDescriptionERKNS0_25ProgramOptionsDescriptionEP16TRI_PO_section_s
   fun:_ZN8triagens6basics14ProgramOptions19setupSubDescriptionERKNS0_25ProgramOptionsDescriptionEP16TRI_PO_section_s
   fun:_ZN8triagens6basics14ProgramOptions16setupDescriptionERKNS0_25ProgramOptionsDescriptionE
   fun:_ZN8triagens6basics14ProgramOptions5parseERKNS0_25ProgramOptionsDescriptionEiPPc
}

{
   <insert_a_suppression_name_here>
   Memcheck:Leak
   fun:_Znwm
   fun:_ZN9__gnu_cxx13new_allocatorISt13_Rb_tree_nodeISt4pairIKSsPSsEEE8allocateEmPKv
   fun:_ZNSt8_Rb_treeISsSt4pairIKSsPSsESt10_Select1stIS3_ESt4lessISsESaIS3_EE11_M_get_nodeEv
   fun:_ZNSt8_Rb_treeISsSt4pairIKSsPSsESt10_Select1stIS3_ESt4lessISsESaIS3_EE14_M_create_nodeERKS3_
   fun:_ZNSt8_Rb_treeISsSt4pairIKSsPSsESt10_Select1stIS3_ESt4lessISsESaIS3_EE13_M_clone_nodeEPKSt13_Rb_tree_nodeIS3_E
   fun:_ZNSt8_Rb_treeISsSt4pairIKSsPSsESt10_Select1stIS3_ESt4lessISsESaIS3_EE7_M_copyEPKSt13_Rb_tree_nodeIS3_EPSB_
   fun:_ZNSt8_Rb_treeISsSt4pairIKSsPSsESt10_Select1stIS3_ESt4lessISsESaIS3_EEC1ERKS9_
   fun:_ZNSt3mapISsPSsSt4lessISsESaISt4pairIKSsS0_EEEC1ERKS7_
   fun:_ZN8triagens6basics25ProgramOptionsDescriptionC1ERKS1_
   fun:_ZN9__gnu_cxx13new_allocatorIN8triagens6basics25ProgramOptionsDescriptionEE9constructEPS3_RKS3_
   fun:_ZNSt6vectorIN8triagens6basics25ProgramOptionsDescriptionESaIS2_EE13_M_insert_auxEN9__gnu_cxx17__normal_iteratorIPS2_S4_EERKS2_
   fun:_ZNSt6vectorIN8triagens6basics25ProgramOptionsDescriptionESaIS2_EE9push_backERKS2_
}

{
   <insert_a_suppression_name_here>
   Memcheck:Leak
   fun:_Znwm
   fun:_ZN9__gnu_cxx13new_allocatorISt13_Rb_tree_nodeISt4pairIKSsPSsEEE8allocateEmPKv
   fun:_ZNSt8_Rb_treeISsSt4pairIKSsPSsESt10_Select1stIS3_ESt4lessISsESaIS3_EE11_M_get_nodeEv
   fun:_ZNSt8_Rb_treeISsSt4pairIKSsPSsESt10_Select1stIS3_ESt4lessISsESaIS3_EE14_M_create_nodeERKS3_
   fun:_ZNSt8_Rb_treeISsSt4pairIKSsPSsESt10_Select1stIS3_ESt4lessISsESaIS3_EE13_M_clone_nodeEPKSt13_Rb_tree_nodeIS3_E
   fun:_ZNSt8_Rb_treeISsSt4pairIKSsPSsESt10_Select1stIS3_ESt4lessISsESaIS3_EE7_M_copyEPKSt13_Rb_tree_nodeIS3_EPSB_
   fun:_ZNSt8_Rb_treeISsSt4pairIKSsPSsESt10_Select1stIS3_ESt4lessISsESaIS3_EEC1ERKS9_
   fun:_ZNSt3mapISsPSsSt4lessISsESaISt4pairIKSsS0_EEEC1ERKS7_
   fun:_ZN8triagens6basics25ProgramOptionsDescriptionC1ERKS1_
   fun:_ZN9__gnu_cxx13new_allocatorIN8triagens6basics25ProgramOptionsDescriptionEE9constructEPS3_RKS3_
   fun:_ZNSt6vectorIN8triagens6basics25ProgramOptionsDescriptionESaIS2_EE13_M_insert_auxEN9__gnu_cxx17__normal_iteratorIPS2_S4_EERKS2_
   fun:_ZNSt6vectorIN8triagens6basics25ProgramOptionsDescriptionESaIS2_EE9push_backERKS2_
}

{
   <insert_a_suppression_name_here>
   Memcheck:Leak
   fun:_Znwm
   fun:_ZN9__gnu_cxx13new_allocatorISt13_Rb_tree_nodeISt4pairIKSsSsEEE8allocateEmPKv
   fun:_ZNSt8_Rb_treeISsSt4pairIKSsSsESt10_Select1stIS2_ESt4lessISsESaIS2_EE11_M_get_nodeEv
   fun:_ZNSt8_Rb_treeISsSt4pairIKSsSsESt10_Select1stIS2_ESt4lessISsESaIS2_EE14_M_create_nodeERKS2_
   fun:_ZNSt8_Rb_treeISsSt4pairIKSsSsESt10_Select1stIS2_ESt4lessISsESaIS2_EE13_M_clone_nodeEPKSt13_Rb_tree_nodeIS2_E
   fun:_ZNSt8_Rb_treeISsSt4pairIKSsSsESt10_Select1stIS2_ESt4lessISsESaIS2_EE7_M_copyEPKSt13_Rb_tree_nodeIS2_EPSA_
   fun:_ZNSt8_Rb_treeISsSt4pairIKSsSsESt10_Select1stIS2_ESt4lessISsESaIS2_EEC1ERKS8_
   fun:_ZNSt3mapISsSsSt4lessISsESaISt4pairIKSsSsEEEC1ERKS6_
   fun:_ZN8triagens6basics25ProgramOptionsDescriptionC1ERKS1_
   fun:_ZSt10_ConstructIN8triagens6basics25ProgramOptionsDescriptionES2_EvPT_RKT0_
   fun:_ZNSt20__uninitialized_copyILb0EE18uninitialized_copyIPN8triagens6basics25ProgramOptionsDescriptionES5_EET0_T_S7_S6_
   fun:_ZSt18uninitialized_copyIPN8triagens6basics25ProgramOptionsDescriptionES3_ET0_T_S5_S4_
}

{
   <insert_a_suppression_name_here>
   Memcheck:Leak
   fun:_Znwm
   fun:_ZN9__gnu_cxx13new_allocatorISt13_Rb_tree_nodeISt4pairIKSsN8triagens6basics25ProgramOptionsDescription13option_type_eEEEE8allocateEmPKv
   fun:_ZNSt8_Rb_treeISsSt4pairIKSsN8triagens6basics25ProgramOptionsDescription13option_type_eEESt10_Select1stIS6_ESt4lessISsESaIS6_EE11_M_get_nodeEv
   fun:_ZNSt8_Rb_treeISsSt4pairIKSsN8triagens6basics25ProgramOptionsDescription13option_type_eEESt10_Select1stIS6_ESt4lessISsESaIS6_EE14_M_create_nodeERKS6_
   fun:_ZNSt8_Rb_treeISsSt4pairIKSsN8triagens6basics25ProgramOptionsDescription13option_type_eEESt10_Select1stIS6_ESt4lessISsESaIS6_EE13_M_clone_nodeEPKSt13_Rb_tree_nodeIS6_E
   fun:_ZNSt8_Rb_treeISsSt4pairIKSsN8triagens6basics25ProgramOptionsDescription13option_type_eEESt10_Select1stIS6_ESt4lessISsESaIS6_EE7_M_copyEPKSt13_Rb_tree_nodeIS6_EPSE_
   fun:_ZNSt8_Rb_treeISsSt4pairIKSsN8triagens6basics25ProgramOptionsDescription13option_type_eEESt10_Select1stIS6_ESt4lessISsESaIS6_EEC1ERKSC_
   fun:_ZNSt3mapISsN8triagens6basics25ProgramOptionsDescription13option_type_eESt4lessISsESaISt4pairIKSsS3_EEEC1ERKSA_
   fun:_ZN8triagens6basics25ProgramOptionsDescriptionC1ERKS1_
   fun:_ZN9__gnu_cxx13new_allocatorIN8triagens6basics25ProgramOptionsDescriptionEE9constructEPS3_RKS3_
   fun:_ZNSt6vectorIN8triagens6basics25ProgramOptionsDescriptionESaIS2_EE13_M_insert_auxEN9__gnu_cxx17__normal_iteratorIPS2_S4_EERKS2_
   fun:_ZNSt6vectorIN8triagens6basics25ProgramOptionsDescriptionESaIS2_EE9push_backERKS2_
}

{
   <insert_a_suppression_name_here>
   Memcheck:Leak
   fun:_Znwm
   fun:_ZN9__gnu_cxx13new_allocatorISt13_Rb_tree_nodeISt4pairIKSsN8triagens6basics25ProgramOptionsDescription13option_type_eEEEE8allocateEmPKv
   fun:_ZNSt8_Rb_treeISsSt4pairIKSsN8triagens6basics25ProgramOptionsDescription13option_type_eEESt10_Select1stIS6_ESt4lessISsESaIS6_EE11_M_get_nodeEv
   fun:_ZNSt8_Rb_treeISsSt4pairIKSsN8triagens6basics25ProgramOptionsDescription13option_type_eEESt10_Select1stIS6_ESt4lessISsESaIS6_EE14_M_create_nodeERKS6_
   fun:_ZNSt8_Rb_treeISsSt4pairIKSsN8triagens6basics25ProgramOptionsDescription13option_type_eEESt10_Select1stIS6_ESt4lessISsESaIS6_EE13_M_clone_nodeEPKSt13_Rb_tree_nodeIS6_E
   fun:_ZNSt8_Rb_treeISsSt4pairIKSsN8triagens6basics25ProgramOptionsDescription13option_type_eEESt10_Select1stIS6_ESt4lessISsESaIS6_EE7_M_copyEPKSt13_Rb_tree_nodeIS6_EPSE_
   fun:_ZNSt8_Rb_treeISsSt4pairIKSsN8triagens6basics25ProgramOptionsDescription13option_type_eEESt10_Select1stIS6_ESt4lessISsESaIS6_EEC1ERKSC_
   fun:_ZNSt3mapISsN8triagens6basics25ProgramOptionsDescription13option_type_eESt4lessISsESaISt4pairIKSsS3_EEEC1ERKSA_
   fun:_ZN8triagens6basics25ProgramOptionsDescriptionC1ERKS1_
   fun:_ZN9__gnu_cxx13new_allocatorIN8triagens6basics25ProgramOptionsDescriptionEE9constructEPS3_RKS3_
   fun:_ZNSt6vectorIN8triagens6basics25ProgramOptionsDescriptionESaIS2_EE13_M_insert_auxEN9__gnu_cxx17__normal_iteratorIPS2_S4_EERKS2_
   fun:_ZNSt6vectorIN8triagens6basics25ProgramOptionsDescriptionESaIS2_EE9push_backERKS2_
}

{
   <insert_a_suppression_name_here>
   Memcheck:Leak
   fun:_Znwm
   fun:_ZN9__gnu_cxx13new_allocatorISt13_Rb_tree_nodeISt4pairIKSsSsEEE8allocateEmPKv
   fun:_ZNSt8_Rb_treeISsSt4pairIKSsSsESt10_Select1stIS2_ESt4lessISsESaIS2_EE11_M_get_nodeEv
   fun:_ZNSt8_Rb_treeISsSt4pairIKSsSsESt10_Select1stIS2_ESt4lessISsESaIS2_EE14_M_create_nodeERKS2_
   fun:_ZNSt8_Rb_treeISsSt4pairIKSsSsESt10_Select1stIS2_ESt4lessISsESaIS2_EE13_M_clone_nodeEPKSt13_Rb_tree_nodeIS2_E
   fun:_ZNSt8_Rb_treeISsSt4pairIKSsSsESt10_Select1stIS2_ESt4lessISsESaIS2_EE7_M_copyEPKSt13_Rb_tree_nodeIS2_EPSA_
   fun:_ZNSt8_Rb_treeISsSt4pairIKSsSsESt10_Select1stIS2_ESt4lessISsESaIS2_EEC1ERKS8_
   fun:_ZNSt3mapISsSsSt4lessISsESaISt4pairIKSsSsEEEC1ERKS6_
   fun:_ZN8triagens6basics25ProgramOptionsDescriptionC1ERKS1_
   fun:_ZN9__gnu_cxx13new_allocatorIN8triagens6basics25ProgramOptionsDescriptionEE9constructEPS3_RKS3_
   fun:_ZNSt6vectorIN8triagens6basics25ProgramOptionsDescriptionESaIS2_EE13_M_insert_auxEN9__gnu_cxx17__normal_iteratorIPS2_S4_EERKS2_
   fun:_ZNSt6vectorIN8triagens6basics25ProgramOptionsDescriptionESaIS2_EE9push_backERKS2_
}

{
   <insert_a_suppression_name_here>
   Memcheck:Leak
   fun:_Znwm
   fun:_ZN9__gnu_cxx13new_allocatorISt13_Rb_tree_nodeISt4pairIKSsSsEEE8allocateEmPKv
   fun:_ZNSt8_Rb_treeISsSt4pairIKSsSsESt10_Select1stIS2_ESt4lessISsESaIS2_EE11_M_get_nodeEv
   fun:_ZNSt8_Rb_treeISsSt4pairIKSsSsESt10_Select1stIS2_ESt4lessISsESaIS2_EE14_M_create_nodeERKS2_
   fun:_ZNSt8_Rb_treeISsSt4pairIKSsSsESt10_Select1stIS2_ESt4lessISsESaIS2_EE13_M_clone_nodeEPKSt13_Rb_tree_nodeIS2_E
   fun:_ZNSt8_Rb_treeISsSt4pairIKSsSsESt10_Select1stIS2_ESt4lessISsESaIS2_EE7_M_copyEPKSt13_Rb_tree_nodeIS2_EPSA_
   fun:_ZNSt8_Rb_treeISsSt4pairIKSsSsESt10_Select1stIS2_ESt4lessISsESaIS2_EEC1ERKS8_
   fun:_ZNSt3mapISsSsSt4lessISsESaISt4pairIKSsSsEEEC1ERKS6_
   fun:_ZN8triagens6basics25ProgramOptionsDescriptionC1ERKS1_
   fun:_ZN9__gnu_cxx13new_allocatorIN8triagens6basics25ProgramOptionsDescriptionEE9constructEPS3_RKS3_
   fun:_ZNSt6vectorIN8triagens6basics25ProgramOptionsDescriptionESaIS2_EE13_M_insert_auxEN9__gnu_cxx17__normal_iteratorIPS2_S4_EERKS2_
   fun:_ZNSt6vectorIN8triagens6basics25ProgramOptionsDescriptionESaIS2_EE9push_backERKS2_
}

{
   <insert_a_suppression_name_here>
   Memcheck:Leak
   fun:_Znwm
   fun:_ZN9__gnu_cxx13new_allocatorISt13_Rb_tree_nodeISt4pairIKSsN8triagens6basics25ProgramOptionsDescription13option_type_eEEEE8allocateEmPKv
   fun:_ZNSt8_Rb_treeISsSt4pairIKSsN8triagens6basics25ProgramOptionsDescription13option_type_eEESt10_Select1stIS6_ESt4lessISsESaIS6_EE11_M_get_nodeEv
   fun:_ZNSt8_Rb_treeISsSt4pairIKSsN8triagens6basics25ProgramOptionsDescription13option_type_eEESt10_Select1stIS6_ESt4lessISsESaIS6_EE14_M_create_nodeERKS6_
   fun:_ZNSt8_Rb_treeISsSt4pairIKSsN8triagens6basics25ProgramOptionsDescription13option_type_eEESt10_Select1stIS6_ESt4lessISsESaIS6_EE13_M_clone_nodeEPKSt13_Rb_tree_nodeIS6_E
   fun:_ZNSt8_Rb_treeISsSt4pairIKSsN8triagens6basics25ProgramOptionsDescription13option_type_eEESt10_Select1stIS6_ESt4lessISsESaIS6_EE7_M_copyEPKSt13_Rb_tree_nodeIS6_EPSE_
   fun:_ZNSt8_Rb_treeISsSt4pairIKSsN8triagens6basics25ProgramOptionsDescription13option_type_eEESt10_Select1stIS6_ESt4lessISsESaIS6_EE7_M_copyEPKSt13_Rb_tree_nodeIS6_EPSE_
   fun:_ZNSt8_Rb_treeISsSt4pairIKSsN8triagens6basics25ProgramOptionsDescription13option_type_eEESt10_Select1stIS6_ESt4lessISsESaIS6_EE7_M_copyEPKSt13_Rb_tree_nodeIS6_EPSE_
   fun:_ZNSt8_Rb_treeISsSt4pairIKSsN8triagens6basics25ProgramOptionsDescription13option_type_eEESt10_Select1stIS6_ESt4lessISsESaIS6_EEC1ERKSC_
   fun:_ZNSt3mapISsN8triagens6basics25ProgramOptionsDescription13option_type_eESt4lessISsESaISt4pairIKSsS3_EEEC1ERKSA_
   fun:_ZN8triagens6basics25ProgramOptionsDescriptionC1ERKS1_
   fun:_ZSt10_ConstructIN8triagens6basics25ProgramOptionsDescriptionES2_EvPT_RKT0_
}

{
   <insert_a_suppression_name_here>
   Memcheck:Leak
   fun:_Znwm
   fun:_ZN9__gnu_cxx13new_allocatorISt13_Rb_tree_nodeISt4pairIKSsN8triagens6basics25ProgramOptionsDescription13option_type_eEEEE8allocateEmPKv
   fun:_ZNSt8_Rb_treeISsSt4pairIKSsN8triagens6basics25ProgramOptionsDescription13option_type_eEESt10_Select1stIS6_ESt4lessISsESaIS6_EE11_M_get_nodeEv
   fun:_ZNSt8_Rb_treeISsSt4pairIKSsN8triagens6basics25ProgramOptionsDescription13option_type_eEESt10_Select1stIS6_ESt4lessISsESaIS6_EE14_M_create_nodeERKS6_
   fun:_ZNSt8_Rb_treeISsSt4pairIKSsN8triagens6basics25ProgramOptionsDescription13option_type_eEESt10_Select1stIS6_ESt4lessISsESaIS6_EE13_M_clone_nodeEPKSt13_Rb_tree_nodeIS6_E
   fun:_ZNSt8_Rb_treeISsSt4pairIKSsN8triagens6basics25ProgramOptionsDescription13option_type_eEESt10_Select1stIS6_ESt4lessISsESaIS6_EE7_M_copyEPKSt13_Rb_tree_nodeIS6_EPSE_
   fun:_ZNSt8_Rb_treeISsSt4pairIKSsN8triagens6basics25ProgramOptionsDescription13option_type_eEESt10_Select1stIS6_ESt4lessISsESaIS6_EE7_M_copyEPKSt13_Rb_tree_nodeIS6_EPSE_
   fun:_ZNSt8_Rb_treeISsSt4pairIKSsN8triagens6basics25ProgramOptionsDescription13option_type_eEESt10_Select1stIS6_ESt4lessISsESaIS6_EEC1ERKSC_
   fun:_ZNSt3mapISsN8triagens6basics25ProgramOptionsDescription13option_type_eESt4lessISsESaISt4pairIKSsS3_EEEC1ERKSA_
   fun:_ZN8triagens6basics25ProgramOptionsDescriptionC1ERKS1_
   fun:_ZSt10_ConstructIN8triagens6basics25ProgramOptionsDescriptionES2_EvPT_RKT0_
   fun:_ZNSt20__uninitialized_copyILb0EE18uninitialized_copyIPN8triagens6basics25ProgramOptionsDescriptionES5_EET0_T_S7_S6_
}

{
   <insert_a_suppression_name_here>
   Memcheck:Leak
   fun:_Znwm
   fun:_ZN9__gnu_cxx13new_allocatorISt13_Rb_tree_nodeISt4pairIKSsSsEEE8allocateEmPKv
   fun:_ZNSt8_Rb_treeISsSt4pairIKSsSsESt10_Select1stIS2_ESt4lessISsESaIS2_EE11_M_get_nodeEv
   fun:_ZNSt8_Rb_treeISsSt4pairIKSsSsESt10_Select1stIS2_ESt4lessISsESaIS2_EE14_M_create_nodeERKS2_
   fun:_ZNSt8_Rb_treeISsSt4pairIKSsSsESt10_Select1stIS2_ESt4lessISsESaIS2_EE13_M_clone_nodeEPKSt13_Rb_tree_nodeIS2_E
   fun:_ZNSt8_Rb_treeISsSt4pairIKSsSsESt10_Select1stIS2_ESt4lessISsESaIS2_EE7_M_copyEPKSt13_Rb_tree_nodeIS2_EPSA_
   fun:_ZNSt8_Rb_treeISsSt4pairIKSsSsESt10_Select1stIS2_ESt4lessISsESaIS2_EE7_M_copyEPKSt13_Rb_tree_nodeIS2_EPSA_
   fun:_ZNSt8_Rb_treeISsSt4pairIKSsSsESt10_Select1stIS2_ESt4lessISsESaIS2_EE7_M_copyEPKSt13_Rb_tree_nodeIS2_EPSA_
   fun:_ZNSt8_Rb_treeISsSt4pairIKSsSsESt10_Select1stIS2_ESt4lessISsESaIS2_EEC1ERKS8_
   fun:_ZNSt3mapISsSsSt4lessISsESaISt4pairIKSsSsEEEC1ERKS6_
   fun:_ZN8triagens6basics25ProgramOptionsDescriptionC1ERKS1_
   fun:_ZSt10_ConstructIN8triagens6basics25ProgramOptionsDescriptionES2_EvPT_RKT0_
}

{
   <insert_a_suppression_name_here>
   Memcheck:Leak
   fun:_Znwm
   fun:_ZN9__gnu_cxx13new_allocatorISt13_Rb_tree_nodeISt4pairIKSsSsEEE8allocateEmPKv
   fun:_ZNSt8_Rb_treeISsSt4pairIKSsSsESt10_Select1stIS2_ESt4lessISsESaIS2_EE11_M_get_nodeEv
   fun:_ZNSt8_Rb_treeISsSt4pairIKSsSsESt10_Select1stIS2_ESt4lessISsESaIS2_EE14_M_create_nodeERKS2_
   fun:_ZNSt8_Rb_treeISsSt4pairIKSsSsESt10_Select1stIS2_ESt4lessISsESaIS2_EE13_M_clone_nodeEPKSt13_Rb_tree_nodeIS2_E
   fun:_ZNSt8_Rb_treeISsSt4pairIKSsSsESt10_Select1stIS2_ESt4lessISsESaIS2_EE7_M_copyEPKSt13_Rb_tree_nodeIS2_EPSA_
   fun:_ZNSt8_Rb_treeISsSt4pairIKSsSsESt10_Select1stIS2_ESt4lessISsESaIS2_EE7_M_copyEPKSt13_Rb_tree_nodeIS2_EPSA_
   fun:_ZNSt8_Rb_treeISsSt4pairIKSsSsESt10_Select1stIS2_ESt4lessISsESaIS2_EEC1ERKS8_
   fun:_ZNSt3mapISsSsSt4lessISsESaISt4pairIKSsSsEEEC1ERKS6_
   fun:_ZN8triagens6basics25ProgramOptionsDescriptionC1ERKS1_
   fun:_ZSt10_ConstructIN8triagens6basics25ProgramOptionsDescriptionES2_EvPT_RKT0_
   fun:_ZNSt20__uninitialized_copyILb0EE18uninitialized_copyIPN8triagens6basics25ProgramOptionsDescriptionES5_EET0_T_S7_S6_
}

{
   <insert_a_suppression_name_here>
   Memcheck:Leak
   fun:_Znwm
   fun:_ZN9__gnu_cxx13new_allocatorISt13_Rb_tree_nodeISt4pairIKSsPiEEE8allocateEmPKv
   fun:_ZNSt8_Rb_treeISsSt4pairIKSsPiESt10_Select1stIS3_ESt4lessISsESaIS3_EE11_M_get_nodeEv
   fun:_ZNSt8_Rb_treeISsSt4pairIKSsPiESt10_Select1stIS3_ESt4lessISsESaIS3_EE14_M_create_nodeERKS3_
   fun:_ZNSt8_Rb_treeISsSt4pairIKSsPiESt10_Select1stIS3_ESt4lessISsESaIS3_EE13_M_clone_nodeEPKSt13_Rb_tree_nodeIS3_E
   fun:_ZNSt8_Rb_treeISsSt4pairIKSsPiESt10_Select1stIS3_ESt4lessISsESaIS3_EE7_M_copyEPKSt13_Rb_tree_nodeIS3_EPSB_
   fun:_ZNSt8_Rb_treeISsSt4pairIKSsPiESt10_Select1stIS3_ESt4lessISsESaIS3_EEC1ERKS9_
   fun:_ZNSt3mapISsPiSt4lessISsESaISt4pairIKSsS0_EEEC1ERKS7_
   fun:_ZN8triagens6basics25ProgramOptionsDescriptionC1ERKS1_
   fun:_ZSt10_ConstructIN8triagens6basics25ProgramOptionsDescriptionES2_EvPT_RKT0_
   fun:_ZNSt20__uninitialized_copyILb0EE18uninitialized_copyIPN8triagens6basics25ProgramOptionsDescriptionES5_EET0_T_S7_S6_
   fun:_ZSt18uninitialized_copyIPN8triagens6basics25ProgramOptionsDescriptionES3_ET0_T_S5_S4_
}

{
   <insert_a_suppression_name_here>
   Memcheck:Leak
   fun:_Znwm
   fun:_ZN9__gnu_cxx13new_allocatorISt13_Rb_tree_nodeISt4pairIKSsN8triagens6basics25ProgramOptionsDescription13option_type_eEEEE8allocateEmPKv
   fun:_ZNSt8_Rb_treeISsSt4pairIKSsN8triagens6basics25ProgramOptionsDescription13option_type_eEESt10_Select1stIS6_ESt4lessISsESaIS6_EE11_M_get_nodeEv
   fun:_ZNSt8_Rb_treeISsSt4pairIKSsN8triagens6basics25ProgramOptionsDescription13option_type_eEESt10_Select1stIS6_ESt4lessISsESaIS6_EE14_M_create_nodeERKS6_
   fun:_ZNSt8_Rb_treeISsSt4pairIKSsN8triagens6basics25ProgramOptionsDescription13option_type_eEESt10_Select1stIS6_ESt4lessISsESaIS6_EE13_M_clone_nodeEPKSt13_Rb_tree_nodeIS6_E
   fun:_ZNSt8_Rb_treeISsSt4pairIKSsN8triagens6basics25ProgramOptionsDescription13option_type_eEESt10_Select1stIS6_ESt4lessISsESaIS6_EE7_M_copyEPKSt13_Rb_tree_nodeIS6_EPSE_
   fun:_ZNSt8_Rb_treeISsSt4pairIKSsN8triagens6basics25ProgramOptionsDescription13option_type_eEESt10_Select1stIS6_ESt4lessISsESaIS6_EE7_M_copyEPKSt13_Rb_tree_nodeIS6_EPSE_
   fun:_ZNSt8_Rb_treeISsSt4pairIKSsN8triagens6basics25ProgramOptionsDescription13option_type_eEESt10_Select1stIS6_ESt4lessISsESaIS6_EEC1ERKSC_
   fun:_ZNSt3mapISsN8triagens6basics25ProgramOptionsDescription13option_type_eESt4lessISsESaISt4pairIKSsS3_EEEC1ERKSA_
   fun:_ZN8triagens6basics25ProgramOptionsDescriptionC1ERKS1_
   fun:_ZSt10_ConstructIN8triagens6basics25ProgramOptionsDescriptionES2_EvPT_RKT0_
   fun:_ZNSt20__uninitialized_copyILb0EE18uninitialized_copyIPN8triagens6basics25ProgramOptionsDescriptionES5_EET0_T_S7_S6_
}

{
   <insert_a_suppression_name_here>
   Memcheck:Leak
   fun:_Znwm
   fun:_ZN9__gnu_cxx13new_allocatorISt13_Rb_tree_nodeISt4pairIKSsSsEEE8allocateEmPKv
   fun:_ZNSt8_Rb_treeISsSt4pairIKSsSsESt10_Select1stIS2_ESt4lessISsESaIS2_EE11_M_get_nodeEv
   fun:_ZNSt8_Rb_treeISsSt4pairIKSsSsESt10_Select1stIS2_ESt4lessISsESaIS2_EE14_M_create_nodeERKS2_
   fun:_ZNSt8_Rb_treeISsSt4pairIKSsSsESt10_Select1stIS2_ESt4lessISsESaIS2_EE13_M_clone_nodeEPKSt13_Rb_tree_nodeIS2_E
   fun:_ZNSt8_Rb_treeISsSt4pairIKSsSsESt10_Select1stIS2_ESt4lessISsESaIS2_EE7_M_copyEPKSt13_Rb_tree_nodeIS2_EPSA_
   fun:_ZNSt8_Rb_treeISsSt4pairIKSsSsESt10_Select1stIS2_ESt4lessISsESaIS2_EE7_M_copyEPKSt13_Rb_tree_nodeIS2_EPSA_
   fun:_ZNSt8_Rb_treeISsSt4pairIKSsSsESt10_Select1stIS2_ESt4lessISsESaIS2_EEC1ERKS8_
   fun:_ZNSt3mapISsSsSt4lessISsESaISt4pairIKSsSsEEEC1ERKS6_
   fun:_ZN8triagens6basics25ProgramOptionsDescriptionC1ERKS1_
   fun:_ZSt10_ConstructIN8triagens6basics25ProgramOptionsDescriptionES2_EvPT_RKT0_
   fun:_ZNSt20__uninitialized_copyILb0EE18uninitialized_copyIPN8triagens6basics25ProgramOptionsDescriptionES5_EET0_T_S7_S6_
}

{
   <insert_a_suppression_name_here>
   Memcheck:Leak
   fun:_Znwm
   fun:_ZN9__gnu_cxx13new_allocatorISt13_Rb_tree_nodeISt4pairIKSsPSsEEE8allocateEmPKv
   fun:_ZNSt8_Rb_treeISsSt4pairIKSsPSsESt10_Select1stIS3_ESt4lessISsESaIS3_EE11_M_get_nodeEv
   fun:_ZNSt8_Rb_treeISsSt4pairIKSsPSsESt10_Select1stIS3_ESt4lessISsESaIS3_EE14_M_create_nodeERKS3_
   fun:_ZNSt8_Rb_treeISsSt4pairIKSsPSsESt10_Select1stIS3_ESt4lessISsESaIS3_EE13_M_clone_nodeEPKSt13_Rb_tree_nodeIS3_E
   fun:_ZNSt8_Rb_treeISsSt4pairIKSsPSsESt10_Select1stIS3_ESt4lessISsESaIS3_EE7_M_copyEPKSt13_Rb_tree_nodeIS3_EPSB_
   fun:_ZNSt8_Rb_treeISsSt4pairIKSsPSsESt10_Select1stIS3_ESt4lessISsESaIS3_EE7_M_copyEPKSt13_Rb_tree_nodeIS3_EPSB_
   fun:_ZNSt8_Rb_treeISsSt4pairIKSsPSsESt10_Select1stIS3_ESt4lessISsESaIS3_EEC1ERKS9_
   fun:_ZNSt3mapISsPSsSt4lessISsESaISt4pairIKSsS0_EEEC1ERKS7_
   fun:_ZN8triagens6basics25ProgramOptionsDescriptionC1ERKS1_
   fun:_ZSt10_ConstructIN8triagens6basics25ProgramOptionsDescriptionES2_EvPT_RKT0_
   fun:_ZNSt20__uninitialized_copyILb0EE18uninitialized_copyIPN8triagens6basics25ProgramOptionsDescriptionES5_EET0_T_S7_S6_
}

{
   <insert_a_suppression_name_here>
   Memcheck:Leak
   fun:_Znwm
   fun:_ZN9__gnu_cxx13new_allocatorISt13_Rb_tree_nodeISsEE8allocateEmPKv
   fun:_ZNSt8_Rb_treeISsSsSt9_IdentityISsESt4lessISsESaISsEE11_M_get_nodeEv
   fun:_ZNSt8_Rb_treeISsSsSt9_IdentityISsESt4lessISsESaISsEE14_M_create_nodeERKSs
   fun:_ZNSt8_Rb_treeISsSsSt9_IdentityISsESt4lessISsESaISsEE13_M_clone_nodeEPKSt13_Rb_tree_nodeISsE
   fun:_ZNSt8_Rb_treeISsSsSt9_IdentityISsESt4lessISsESaISsEE7_M_copyEPKSt13_Rb_tree_nodeISsEPS7_
   fun:_ZNSt8_Rb_treeISsSsSt9_IdentityISsESt4lessISsESaISsEEC1ERKS5_
   fun:_ZNSt3setISsSt4lessISsESaISsEEC1ERKS3_
   fun:_ZN8triagens6basics25ProgramOptionsDescriptionC1ERKS1_
   fun:_ZSt10_ConstructIN8triagens6basics25ProgramOptionsDescriptionES2_EvPT_RKT0_
   fun:_ZNSt20__uninitialized_copyILb0EE18uninitialized_copyIPN8triagens6basics25ProgramOptionsDescriptionES5_EET0_T_S7_S6_
   fun:_ZSt18uninitialized_copyIPN8triagens6basics25ProgramOptionsDescriptionES3_ET0_T_S5_S4_
}

{
   <insert_a_suppression_name_here>
   Memcheck:Leak
   fun:_Znwm
   fun:_ZN9__gnu_cxx13new_allocatorISt13_Rb_tree_nodeISt4pairIKSsN8triagens6basics25ProgramOptionsDescription13option_type_eEEEE8allocateEmPKv
   fun:_ZNSt8_Rb_treeISsSt4pairIKSsN8triagens6basics25ProgramOptionsDescription13option_type_eEESt10_Select1stIS6_ESt4lessISsESaIS6_EE11_M_get_nodeEv
   fun:_ZNSt8_Rb_treeISsSt4pairIKSsN8triagens6basics25ProgramOptionsDescription13option_type_eEESt10_Select1stIS6_ESt4lessISsESaIS6_EE14_M_create_nodeERKS6_
   fun:_ZNSt8_Rb_treeISsSt4pairIKSsN8triagens6basics25ProgramOptionsDescription13option_type_eEESt10_Select1stIS6_ESt4lessISsESaIS6_EE13_M_clone_nodeEPKSt13_Rb_tree_nodeIS6_E
   fun:_ZNSt8_Rb_treeISsSt4pairIKSsN8triagens6basics25ProgramOptionsDescription13option_type_eEESt10_Select1stIS6_ESt4lessISsESaIS6_EE7_M_copyEPKSt13_Rb_tree_nodeIS6_EPSE_
   fun:_ZNSt8_Rb_treeISsSt4pairIKSsN8triagens6basics25ProgramOptionsDescription13option_type_eEESt10_Select1stIS6_ESt4lessISsESaIS6_EE7_M_copyEPKSt13_Rb_tree_nodeIS6_EPSE_
   fun:_ZNSt8_Rb_treeISsSt4pairIKSsN8triagens6basics25ProgramOptionsDescription13option_type_eEESt10_Select1stIS6_ESt4lessISsESaIS6_EEC1ERKSC_
   fun:_ZNSt3mapISsN8triagens6basics25ProgramOptionsDescription13option_type_eESt4lessISsESaISt4pairIKSsS3_EEEC1ERKSA_
   fun:_ZN8triagens6basics25ProgramOptionsDescriptionC1ERKS1_
   fun:_ZSt10_ConstructIN8triagens6basics25ProgramOptionsDescriptionES2_EvPT_RKT0_
   fun:_ZNSt20__uninitialized_copyILb0EE18uninitialized_copyIPN8triagens6basics25ProgramOptionsDescriptionES5_EET0_T_S7_S6_
}

{
   <insert_a_suppression_name_here>
   Memcheck:Leak
   fun:_Znwm
   fun:_ZN9__gnu_cxx13new_allocatorISt13_Rb_tree_nodeISt4pairIKSsSsEEE8allocateEmPKv
   fun:_ZNSt8_Rb_treeISsSt4pairIKSsSsESt10_Select1stIS2_ESt4lessISsESaIS2_EE11_M_get_nodeEv
   fun:_ZNSt8_Rb_treeISsSt4pairIKSsSsESt10_Select1stIS2_ESt4lessISsESaIS2_EE14_M_create_nodeERKS2_
   fun:_ZNSt8_Rb_treeISsSt4pairIKSsSsESt10_Select1stIS2_ESt4lessISsESaIS2_EE13_M_clone_nodeEPKSt13_Rb_tree_nodeIS2_E
   fun:_ZNSt8_Rb_treeISsSt4pairIKSsSsESt10_Select1stIS2_ESt4lessISsESaIS2_EE7_M_copyEPKSt13_Rb_tree_nodeIS2_EPSA_
   fun:_ZNSt8_Rb_treeISsSt4pairIKSsSsESt10_Select1stIS2_ESt4lessISsESaIS2_EE7_M_copyEPKSt13_Rb_tree_nodeIS2_EPSA_
   fun:_ZNSt8_Rb_treeISsSt4pairIKSsSsESt10_Select1stIS2_ESt4lessISsESaIS2_EEC1ERKS8_
   fun:_ZNSt3mapISsSsSt4lessISsESaISt4pairIKSsSsEEEC1ERKS6_
   fun:_ZN8triagens6basics25ProgramOptionsDescriptionC1ERKS1_
   fun:_ZSt10_ConstructIN8triagens6basics25ProgramOptionsDescriptionES2_EvPT_RKT0_
   fun:_ZNSt20__uninitialized_copyILb0EE18uninitialized_copyIPN8triagens6basics25ProgramOptionsDescriptionES5_EET0_T_S7_S6_
}

{
   <insert_a_suppression_name_here>
   Memcheck:Leak
   fun:_Znwm
   fun:_ZN9__gnu_cxx13new_allocatorISt13_Rb_tree_nodeISt4pairIKSsPSsEEE8allocateEmPKv
   fun:_ZNSt8_Rb_treeISsSt4pairIKSsPSsESt10_Select1stIS3_ESt4lessISsESaIS3_EE11_M_get_nodeEv
   fun:_ZNSt8_Rb_treeISsSt4pairIKSsPSsESt10_Select1stIS3_ESt4lessISsESaIS3_EE14_M_create_nodeERKS3_
   fun:_ZNSt8_Rb_treeISsSt4pairIKSsPSsESt10_Select1stIS3_ESt4lessISsESaIS3_EE13_M_clone_nodeEPKSt13_Rb_tree_nodeIS3_E
   fun:_ZNSt8_Rb_treeISsSt4pairIKSsPSsESt10_Select1stIS3_ESt4lessISsESaIS3_EE7_M_copyEPKSt13_Rb_tree_nodeIS3_EPSB_
   fun:_ZNSt8_Rb_treeISsSt4pairIKSsPSsESt10_Select1stIS3_ESt4lessISsESaIS3_EEC1ERKS9_
   fun:_ZNSt3mapISsPSsSt4lessISsESaISt4pairIKSsS0_EEEC1ERKS7_
   fun:_ZN8triagens6basics25ProgramOptionsDescriptionC1ERKS1_
   fun:_ZSt10_ConstructIN8triagens6basics25ProgramOptionsDescriptionES2_EvPT_RKT0_
   fun:_ZNSt20__uninitialized_copyILb0EE18uninitialized_copyIPN8triagens6basics25ProgramOptionsDescriptionES5_EET0_T_S7_S6_
   fun:_ZSt18uninitialized_copyIPN8triagens6basics25ProgramOptionsDescriptionES3_ET0_T_S5_S4_
}

{
   <insert_a_suppression_name_here>
   Memcheck:Leak
   fun:_Znwm
   fun:_ZN9__gnu_cxx13new_allocatorISsE8allocateEmPKv
   fun:_ZNSt12_Vector_baseISsSaISsEE11_M_allocateEm
   fun:_ZNSt12_Vector_baseISsSaISsEEC1EmRKS0_
   fun:_ZNSt6vectorISsSaISsEEC1ERKS1_
   fun:_ZN8triagens6basics25ProgramOptionsDescriptionC1ERKS1_
   fun:_ZSt10_ConstructIN8triagens6basics25ProgramOptionsDescriptionES2_EvPT_RKT0_
   fun:_ZNSt20__uninitialized_copyILb0EE18uninitialized_copyIPN8triagens6basics25ProgramOptionsDescriptionES5_EET0_T_S7_S6_
   fun:_ZSt18uninitialized_copyIPN8triagens6basics25ProgramOptionsDescriptionES3_ET0_T_S5_S4_
   fun:_ZSt22__uninitialized_copy_aIPN8triagens6basics25ProgramOptionsDescriptionES3_S2_ET0_T_S5_S4_RSaIT1_E
   fun:_ZSt22__uninitialized_move_aIPN8triagens6basics25ProgramOptionsDescriptionES3_SaIS2_EET0_T_S6_S5_RT1_
   fun:_ZNSt6vectorIN8triagens6basics25ProgramOptionsDescriptionESaIS2_EE13_M_insert_auxEN9__gnu_cxx17__normal_iteratorIPS2_S4_EERKS2_
}

{
   <insert_a_suppression_name_here>
   Memcheck:Leak
   fun:_Znwm
   fun:_ZN9__gnu_cxx13new_allocatorISt13_Rb_tree_nodeISt4pairIKSsPPcEEE8allocateEmPKv
   fun:_ZNSt8_Rb_treeISsSt4pairIKSsPPcESt10_Select1stIS4_ESt4lessISsESaIS4_EE11_M_get_nodeEv
   fun:_ZNSt8_Rb_treeISsSt4pairIKSsPPcESt10_Select1stIS4_ESt4lessISsESaIS4_EE14_M_create_nodeERKS4_
   fun:_ZNSt8_Rb_treeISsSt4pairIKSsPPcESt10_Select1stIS4_ESt4lessISsESaIS4_EE10_M_insert_EPKSt18_Rb_tree_node_baseSD_RKS4_
   fun:_ZNSt8_Rb_treeISsSt4pairIKSsPPcESt10_Select1stIS4_ESt4lessISsESaIS4_EE17_M_insert_unique_ESt23_Rb_tree_const_iteratorIS4_ERKS4_
   fun:_ZNSt3mapISsPPcSt4lessISsESaISt4pairIKSsS1_EEE6insertESt17_Rb_tree_iteratorIS6_ERKS6_
   fun:_ZNSt3mapISsPPcSt4lessISsESaISt4pairIKSsS1_EEEixERS5_
   fun:_ZN8triagens6basics14ProgramOptions19setupSubDescriptionERKNS0_25ProgramOptionsDescriptionEP16TRI_PO_section_s
   fun:_ZN8triagens6basics14ProgramOptions19setupSubDescriptionERKNS0_25ProgramOptionsDescriptionEP16TRI_PO_section_s
   fun:_ZN8triagens6basics14ProgramOptions16setupDescriptionERKNS0_25ProgramOptionsDescriptionE
   fun:_ZN8triagens6basics14ProgramOptions5parseERKNS0_25ProgramOptionsDescriptionEiPPc
}

{
   <insert_a_suppression_name_here>
   Memcheck:Leak
   fun:_Znwm
   fun:_ZN9__gnu_cxx13new_allocatorISt13_Rb_tree_nodeISt4pairIKSsPPcEEE8allocateEmPKv
   fun:_ZNSt8_Rb_treeISsSt4pairIKSsPPcESt10_Select1stIS4_ESt4lessISsESaIS4_EE11_M_get_nodeEv
   fun:_ZNSt8_Rb_treeISsSt4pairIKSsPPcESt10_Select1stIS4_ESt4lessISsESaIS4_EE14_M_create_nodeERKS4_
   fun:_ZNSt8_Rb_treeISsSt4pairIKSsPPcESt10_Select1stIS4_ESt4lessISsESaIS4_EE10_M_insert_EPKSt18_Rb_tree_node_baseSD_RKS4_
   fun:_ZNSt8_Rb_treeISsSt4pairIKSsPPcESt10_Select1stIS4_ESt4lessISsESaIS4_EE17_M_insert_unique_ESt23_Rb_tree_const_iteratorIS4_ERKS4_
   fun:_ZNSt3mapISsPPcSt4lessISsESaISt4pairIKSsS1_EEE6insertESt17_Rb_tree_iteratorIS6_ERKS6_
   fun:_ZNSt3mapISsPPcSt4lessISsESaISt4pairIKSsS1_EEEixERS5_
   fun:_ZN8triagens6basics14ProgramOptions19setupSubDescriptionERKNS0_25ProgramOptionsDescriptionEP16TRI_PO_section_s
   fun:_ZN8triagens6basics14ProgramOptions19setupSubDescriptionERKNS0_25ProgramOptionsDescriptionEP16TRI_PO_section_s
   fun:_ZN8triagens6basics14ProgramOptions16setupDescriptionERKNS0_25ProgramOptionsDescriptionE
   fun:_ZN8triagens6basics14ProgramOptions5parseERKNS0_25ProgramOptionsDescriptionEiPPc
}

{
   <insert_a_suppression_name_here>
   Memcheck:Leak
   fun:_Znwm
   fun:_ZN9__gnu_cxx13new_allocatorISt13_Rb_tree_nodeISt4pairIKSsN8triagens6basics25ProgramOptionsDescription13option_type_eEEEE8allocateEmPKv
   fun:_ZNSt8_Rb_treeISsSt4pairIKSsN8triagens6basics25ProgramOptionsDescription13option_type_eEESt10_Select1stIS6_ESt4lessISsESaIS6_EE11_M_get_nodeEv
   fun:_ZNSt8_Rb_treeISsSt4pairIKSsN8triagens6basics25ProgramOptionsDescription13option_type_eEESt10_Select1stIS6_ESt4lessISsESaIS6_EE14_M_create_nodeERKS6_
   fun:_ZNSt8_Rb_treeISsSt4pairIKSsN8triagens6basics25ProgramOptionsDescription13option_type_eEESt10_Select1stIS6_ESt4lessISsESaIS6_EE13_M_clone_nodeEPKSt13_Rb_tree_nodeIS6_E
   fun:_ZNSt8_Rb_treeISsSt4pairIKSsN8triagens6basics25ProgramOptionsDescription13option_type_eEESt10_Select1stIS6_ESt4lessISsESaIS6_EE7_M_copyEPKSt13_Rb_tree_nodeIS6_EPSE_
   fun:_ZNSt8_Rb_treeISsSt4pairIKSsN8triagens6basics25ProgramOptionsDescription13option_type_eEESt10_Select1stIS6_ESt4lessISsESaIS6_EEC1ERKSC_
   fun:_ZNSt3mapISsN8triagens6basics25ProgramOptionsDescription13option_type_eESt4lessISsESaISt4pairIKSsS3_EEEC1ERKSA_
   fun:_ZN8triagens6basics25ProgramOptionsDescriptionC1ERKS1_
   fun:_ZSt10_ConstructIN8triagens6basics25ProgramOptionsDescriptionES2_EvPT_RKT0_
   fun:_ZNSt20__uninitialized_copyILb0EE18uninitialized_copyIPN8triagens6basics25ProgramOptionsDescriptionES5_EET0_T_S7_S6_
   fun:_ZSt18uninitialized_copyIPN8triagens6basics25ProgramOptionsDescriptionES3_ET0_T_S5_S4_
}

{
   <insert_a_suppression_name_here>
   Memcheck:Leak
   fun:_Znwm
   fun:_ZN9__gnu_cxx13new_allocatorISt13_Rb_tree_nodeISt4pairIKSsSsEEE8allocateEmPKv
   fun:_ZNSt8_Rb_treeISsSt4pairIKSsSsESt10_Select1stIS2_ESt4lessISsESaIS2_EE11_M_get_nodeEv
   fun:_ZNSt8_Rb_treeISsSt4pairIKSsSsESt10_Select1stIS2_ESt4lessISsESaIS2_EE14_M_create_nodeERKS2_
   fun:_ZNSt8_Rb_treeISsSt4pairIKSsSsESt10_Select1stIS2_ESt4lessISsESaIS2_EE13_M_clone_nodeEPKSt13_Rb_tree_nodeIS2_E
   fun:_ZNSt8_Rb_treeISsSt4pairIKSsSsESt10_Select1stIS2_ESt4lessISsESaIS2_EE7_M_copyEPKSt13_Rb_tree_nodeIS2_EPSA_
   fun:_ZNSt8_Rb_treeISsSt4pairIKSsSsESt10_Select1stIS2_ESt4lessISsESaIS2_EEC1ERKS8_
   fun:_ZNSt3mapISsSsSt4lessISsESaISt4pairIKSsSsEEEC1ERKS6_
   fun:_ZN8triagens6basics25ProgramOptionsDescriptionC1ERKS1_
   fun:_ZSt10_ConstructIN8triagens6basics25ProgramOptionsDescriptionES2_EvPT_RKT0_
   fun:_ZNSt20__uninitialized_copyILb0EE18uninitialized_copyIPN8triagens6basics25ProgramOptionsDescriptionES5_EET0_T_S7_S6_
   fun:_ZSt18uninitialized_copyIPN8triagens6basics25ProgramOptionsDescriptionES3_ET0_T_S5_S4_
}

{
   <insert_a_suppression_name_here>
   Memcheck:Leak
   fun:_Znwm
   fun:_ZN9__gnu_cxx13new_allocatorISt13_Rb_tree_nodeISt4pairIKSsN8triagens6basics25ProgramOptionsDescription13option_type_eEEEE8allocateEmPKv
   fun:_ZNSt8_Rb_treeISsSt4pairIKSsN8triagens6basics25ProgramOptionsDescription13option_type_eEESt10_Select1stIS6_ESt4lessISsESaIS6_EE11_M_get_nodeEv
   fun:_ZNSt8_Rb_treeISsSt4pairIKSsN8triagens6basics25ProgramOptionsDescription13option_type_eEESt10_Select1stIS6_ESt4lessISsESaIS6_EE14_M_create_nodeERKS6_
   fun:_ZNSt8_Rb_treeISsSt4pairIKSsN8triagens6basics25ProgramOptionsDescription13option_type_eEESt10_Select1stIS6_ESt4lessISsESaIS6_EE13_M_clone_nodeEPKSt13_Rb_tree_nodeIS6_E
   fun:_ZNSt8_Rb_treeISsSt4pairIKSsN8triagens6basics25ProgramOptionsDescription13option_type_eEESt10_Select1stIS6_ESt4lessISsESaIS6_EE7_M_copyEPKSt13_Rb_tree_nodeIS6_EPSE_
   fun:_ZNSt8_Rb_treeISsSt4pairIKSsN8triagens6basics25ProgramOptionsDescription13option_type_eEESt10_Select1stIS6_ESt4lessISsESaIS6_EEC1ERKSC_
   fun:_ZNSt3mapISsN8triagens6basics25ProgramOptionsDescription13option_type_eESt4lessISsESaISt4pairIKSsS3_EEEC1ERKSA_
   fun:_ZN8triagens6basics25ProgramOptionsDescriptionC1ERKS1_
   fun:_ZSt10_ConstructIN8triagens6basics25ProgramOptionsDescriptionES2_EvPT_RKT0_
   fun:_ZNSt20__uninitialized_copyILb0EE18uninitialized_copyIPN8triagens6basics25ProgramOptionsDescriptionES5_EET0_T_S7_S6_
   fun:_ZSt18uninitialized_copyIPN8triagens6basics25ProgramOptionsDescriptionES3_ET0_T_S5_S4_
}

{
   <insert_a_suppression_name_here>
   Memcheck:Leak
   fun:_Znwm
   fun:_ZN9__gnu_cxx13new_allocatorISt13_Rb_tree_nodeISt4pairIKSsSsEEE8allocateEmPKv
   fun:_ZNSt8_Rb_treeISsSt4pairIKSsSsESt10_Select1stIS2_ESt4lessISsESaIS2_EE11_M_get_nodeEv
   fun:_ZNSt8_Rb_treeISsSt4pairIKSsSsESt10_Select1stIS2_ESt4lessISsESaIS2_EE14_M_create_nodeERKS2_
   fun:_ZNSt8_Rb_treeISsSt4pairIKSsSsESt10_Select1stIS2_ESt4lessISsESaIS2_EE13_M_clone_nodeEPKSt13_Rb_tree_nodeIS2_E
   fun:_ZNSt8_Rb_treeISsSt4pairIKSsSsESt10_Select1stIS2_ESt4lessISsESaIS2_EE7_M_copyEPKSt13_Rb_tree_nodeIS2_EPSA_
   fun:_ZNSt8_Rb_treeISsSt4pairIKSsSsESt10_Select1stIS2_ESt4lessISsESaIS2_EEC1ERKS8_
   fun:_ZNSt3mapISsSsSt4lessISsESaISt4pairIKSsSsEEEC1ERKS6_
   fun:_ZN8triagens6basics25ProgramOptionsDescriptionC1ERKS1_
   fun:_ZSt10_ConstructIN8triagens6basics25ProgramOptionsDescriptionES2_EvPT_RKT0_
   fun:_ZNSt20__uninitialized_copyILb0EE18uninitialized_copyIPN8triagens6basics25ProgramOptionsDescriptionES5_EET0_T_S7_S6_
   fun:_ZSt18uninitialized_copyIPN8triagens6basics25ProgramOptionsDescriptionES3_ET0_T_S5_S4_
}

{
   <insert_a_suppression_name_here>
   Memcheck:Leak
   fun:_Znwm
   fun:_ZN9__gnu_cxx13new_allocatorISt13_Rb_tree_nodeISt4pairIKSsPSsEEE8allocateEmPKv
   fun:_ZNSt8_Rb_treeISsSt4pairIKSsPSsESt10_Select1stIS3_ESt4lessISsESaIS3_EE11_M_get_nodeEv
   fun:_ZNSt8_Rb_treeISsSt4pairIKSsPSsESt10_Select1stIS3_ESt4lessISsESaIS3_EE14_M_create_nodeERKS3_
   fun:_ZNSt8_Rb_treeISsSt4pairIKSsPSsESt10_Select1stIS3_ESt4lessISsESaIS3_EE13_M_clone_nodeEPKSt13_Rb_tree_nodeIS3_E
   fun:_ZNSt8_Rb_treeISsSt4pairIKSsPSsESt10_Select1stIS3_ESt4lessISsESaIS3_EE7_M_copyEPKSt13_Rb_tree_nodeIS3_EPSB_
   fun:_ZNSt8_Rb_treeISsSt4pairIKSsPSsESt10_Select1stIS3_ESt4lessISsESaIS3_EEC1ERKS9_
   fun:_ZNSt3mapISsPSsSt4lessISsESaISt4pairIKSsS0_EEEC1ERKS7_
   fun:_ZN8triagens6basics25ProgramOptionsDescriptionC1ERKS1_
   fun:_ZSt10_ConstructIN8triagens6basics25ProgramOptionsDescriptionES2_EvPT_RKT0_
   fun:_ZNSt20__uninitialized_copyILb0EE18uninitialized_copyIPN8triagens6basics25ProgramOptionsDescriptionES5_EET0_T_S7_S6_
   fun:_ZSt18uninitialized_copyIPN8triagens6basics25ProgramOptionsDescriptionES3_ET0_T_S5_S4_
}

